(lp0
I1
aI2
a(lp1
(iCounter.linecounter
selectLine
p2
(dp3
S'archivosalidajpg'
p4
S'/monitoreo/Aforos/Peticion_4/03032020/03032020_KR8CXCL1SD87_0000/KR8CXCL1SD87_20200303060000_0000_linea_1.jpg'
p5
sS'pt2'
p6
(I989
I592
tp7
sS'pt1'
p8
(I1067
I302
tp9
sS'error'
p10
I00
sbaa(lp11
(iCounter.linecounter
selecttwoLines
p12
(dp13
g4
S'/monitoreo/Aforos/Peticion_4/03032020/03032020_KR8CXCL1SD87_0000/KR8CXCL1SD87_20200303060000_0000_lineaCondicional_1.jpg'
p14
sg10
I00
sS'pt4'
p15
(I930
I1071
tp16
sS'pt3'
p17
(I1557
I533
tp18
sg6
(I1556
I533
tp19
sg8
(I519
I367
tp20
sba(iCounter.linecounter
selecttwoLines
p21
(dp22
g4
S'/monitoreo/Aforos/Peticion_4/03032020/03032020_KR8CXCL1SD87_0000/KR8CXCL1SD87_20200303060000_0000_lineaCondicional_2.jpg'
p23
sg10
I00
sg15
(I408
I1016
tp24
sg17
(I351
I338
tp25
sg6
(I1482
I538
tp26
sg8
(I353
I421
tp27
sbaa.