(lp0
I0
aI2
a(lp1
a(lp2
(iCounter.linecounter
selecttwoLines
p3
(dp4
S'archivosalidajpg'
p5
S'/monitoreo/Aforos/Peticion_4/05032020/05032020_KR128XDG146ASD112_0000/KR128XDG146ASD112_20200305060000_0000_lineaCondicional_1.jpg'
p6
sS'error'
p7
I00
sS'pt4'
p8
(I264
I321
tp9
sS'pt3'
p10
(I169
I156
tp11
sS'pt2'
p12
(I881
I431
tp13
sS'pt1'
p14
(I624
I172
tp15
sba(iCounter.linecounter
selecttwoLines
p16
(dp17
g5
S'/monitoreo/Aforos/Peticion_4/05032020/05032020_KR128XDG146ASD112_0000/KR128XDG146ASD112_20200305060000_0000_lineaCondicional_2.jpg'
p18
sg7
I00
sg8
(I74
I140
tp19
sg10
(I479
I131
tp20
sg12
(I906
I448
tp21
sg14
(I610
I166
tp22
sbaa.