(lp0
I1
aI0
a(lp1
(iCounter.linecounter
selectLine
p2
(dp3
S'archivosalidajpg'
p4
S'/monitoreo/Aforos/bicicletas_COVID/20200415/1demayoXcaracas/CAM72_20200415060000_1_linea_1.jpg'
p5
sS'pt2'
p6
(I1100
I462
tp7
sS'pt1'
p8
(I88
I223
tp9
sS'error'
p10
I00
sbaa(lp11
a.