(lp0
I3
aI0
a(lp1
(iCounter.linecounter
selectLine
p2
(dp3
S'archivosalidajpg'
p4
S'/monitoreo/Aforos/Peticion_3/25022020/25022020_AVBOYACAXCL12SD43_0000/AVBOYACAXCL12SD43_20200225060000_0000_linea_1.jpg'
p5
sS'pt2'
p6
(I839
I306
tp7
sS'pt1'
p8
(I605
I939
tp9
sS'error'
p10
I00
sba(iCounter.linecounter
selectLine
p11
(dp12
g4
S'/monitoreo/Aforos/Peticion_3/25022020/25022020_AVBOYACAXCL12SD43_0000/AVBOYACAXCL12SD43_20200225060000_0000_linea_2.jpg'
p13
sg6
(I1471
I400
tp14
sg8
(I839
I306
tp15
sg10
I00
sba(iCounter.linecounter
selectLine
p16
(dp17
g4
S'/monitoreo/Aforos/Peticion_3/25022020/25022020_AVBOYACAXCL12SD43_0000/AVBOYACAXCL12SD43_20200225060000_0000_linea_3.jpg'
p18
sg6
(I1487
I103
tp19
sg8
(I1471
I400
tp20
sg10
I00
sbaa(lp21
a.