(lp0
I2
aI0
a(lp1
(iCounter.linecounter
selectLine
p2
(dp3
S'archivosalidajpg'
p4
S'/monitoreo/Aforos/Peticion_4/05032020/05032020_KR54BYKR54XCL116SD106_0000/KR54BYKR54XCL116SD106_20200305060000_0000_linea_1.jpg'
p5
sS'pt2'
p6
(I1282
I207
tp7
sS'pt1'
p8
(I342
I616
tp9
sS'error'
p10
I00
sba(iCounter.linecounter
selectLine
p11
(dp12
g4
S'/monitoreo/Aforos/Peticion_4/05032020/05032020_KR54BYKR54XCL116SD106_0000/KR54BYKR54XCL116SD106_20200305060000_0000_linea_2.jpg'
p13
sg6
(I688
I877
tp14
sg8
(I415
I127
tp15
sg10
I00
sbaa(lp16
a.