(lp0
I1
aI3
a(lp1
(iCounter.linecounter
selectLine
p2
(dp3
S'archivosalidajpg'
p4
S'/monitoreo/Aforos/Peticion_4/04032020/04032020_KR95AXCL50SURSD132_0000/KR95AXCL50SURSD132_20200304060000_0000_linea_1.jpg'
p5
sS'pt2'
p6
(I674
I583
tp7
sS'pt1'
p8
(I543
I289
tp9
sS'error'
p10
I00
sbaa(lp11
(iCounter.linecounter
selecttwoLines
p12
(dp13
g4
S'/monitoreo/Aforos/Peticion_4/04032020/04032020_KR95AXCL50SURSD132_0000/KR95AXCL50SURSD132_20200304060000_0000_lineaCondicional_1.jpg'
p14
sg10
I00
sS'pt4'
p15
(I179
I451
tp16
sS'pt3'
p17
(I207
I103
tp18
sg6
(I1060
I333
tp19
sg8
(I164
I429
tp20
sba(iCounter.linecounter
selecttwoLines
p21
(dp22
g4
S'/monitoreo/Aforos/Peticion_4/04032020/04032020_KR95AXCL50SURSD132_0000/KR95AXCL50SURSD132_20200304060000_0000_lineaCondicional_2.jpg'
p23
sg10
I00
sg15
(I611
I121
tp24
sg17
(I258
I158
tp25
sg6
(I992
I357
tp26
sg8
(I183
I451
tp27
sba(iCounter.linecounter
selecttwoLines
p28
(dp29
g4
S'/monitoreo/Aforos/Peticion_4/04032020/04032020_KR95AXCL50SURSD132_0000/KR95AXCL50SURSD132_20200304060000_0000_lineaCondicional_3.jpg'
p30
sg10
I00
sg15
(I734
I109
tp31
sg17
(I1009
I384
tp32
sg6
(I1004
I379
tp33
sg8
(I204
I481
tp34
sbaa.