(lp0
I2
aI0
a(lp1
(iCounter.linecounter
selectLine
p2
(dp3
S'archivosalidajpg'
p4
S'/monitoreo/Aforos/Peticion_3/25022020/25022020_AVBOYACAXCL12SD101_0000/AVBOYACAXCL12SD101_20200225060000_0000_linea_1.jpg'
p5
sS'pt2'
p6
(I490
I450
tp7
sS'pt1'
p8
(I257
I348
tp9
sS'error'
p10
I00
sba(iCounter.linecounter
selectLine
p11
(dp12
g4
S'/monitoreo/Aforos/Peticion_3/25022020/25022020_AVBOYACAXCL12SD101_0000/AVBOYACAXCL12SD101_20200225060000_0000_linea_2.jpg'
p13
sg6
(I1156
I544
tp14
sg8
(I490
I450
tp15
sg10
I00
sbaa(lp16
a.