(lp0
I0
aI5
a(lp1
a(lp2
(iCounter.linecounter
selecttwoLines
p3
(dp4
S'archivosalidajpg'
p5
S'/monitoreo/Aforos/Peticion_4/04032020/04032020_KR1AXDG40ASURSD117_0000/KR1AXDG40ASURSD117_20200304060000_0000_lineaCondicional_1.jpg'
p6
sS'error'
p7
I00
sS'pt4'
p8
(I459
I476
tp9
sS'pt3'
p10
(I131
I235
tp11
sS'pt2'
p12
(I446
I136
tp13
sS'pt1'
p14
(I207
I241
tp15
sba(iCounter.linecounter
selecttwoLines
p16
(dp17
g5
S'/monitoreo/Aforos/Peticion_4/04032020/04032020_KR1AXDG40ASURSD117_0000/KR1AXDG40ASURSD117_20200304060000_0000_lineaCondicional_2.jpg'
p18
sg7
I00
sg8
(I386
I481
tp19
sg10
(I788
I211
tp20
sg12
(I462
I127
tp21
sg14
(I155
I267
tp22
sba(iCounter.linecounter
selecttwoLines
p23
(dp24
g5
S'/monitoreo/Aforos/Peticion_4/04032020/04032020_KR1AXDG40ASURSD117_0000/KR1AXDG40ASURSD117_20200304060000_0000_lineaCondicional_3.jpg'
p25
sg7
I00
sg8
(I182
I276
tp26
sg10
(I368
I87
tp27
sg12
(I809
I185
tp28
sg14
(I350
I135
tp29
sba(iCounter.linecounter
selecttwoLines
p30
(dp31
g5
S'/monitoreo/Aforos/Peticion_4/04032020/04032020_KR1AXDG40ASURSD117_0000/KR1AXDG40ASURSD117_20200304060000_0000_lineaCondicional_4.jpg'
p32
sg7
I00
sg8
(I377
I480
tp33
sg10
(I189
I242
tp34
sg12
(I774
I210
tp35
sg14
(I321
I136
tp36
sba(iCounter.linecounter
selecttwoLines
p37
(dp38
g5
S'/monitoreo/Aforos/Peticion_4/04032020/04032020_KR1AXDG40ASURSD117_0000/KR1AXDG40ASURSD117_20200304060000_0000_lineaCondicional_5.jpg'
p39
sg7
I00
sg8
(I486
I478
tp40
sg10
(I799
I179
tp41
sg12
(I774
I183
tp42
sg14
(I358
I135
tp43
sbaa.