(lp0
I1
aI1
a(lp1
(iCounter.linecounter
selectLine
p2
(dp3
S'archivosalidajpg'
p4
S'/monitoreo/Aforos/Peticion_4/03032020/03032020_KR8CXCL1SD118_0000/KR8CXCL1SD118_20200303060000_0000_linea_1.jpg'
p5
sS'pt2'
p6
(I1129
I749
tp7
sS'pt1'
p8
(I278
I348
tp9
sS'error'
p10
I00
sbaa(lp11
(iCounter.linecounter
selecttwoLines
p12
(dp13
g4
S'/monitoreo/Aforos/Peticion_4/03032020/03032020_KR8CXCL1SD118_0000/KR8CXCL1SD118_20200303060000_0000_lineaCondicional_1.jpg'
p14
sg10
I00
sS'pt4'
p15
(I696
I700
tp16
sS'pt3'
p17
(I315
I991
tp18
sg6
(I99
I709
tp19
sg8
(I710
I417
tp20
sbaa.