(lp0
I1
aI2
a(lp1
(iCounter.linecounter
selectLine
p2
(dp3
S'archivosalidajpg'
p4
S'/monitoreo/Aforos/Peticion_3/27022020/27022020_KR42BISXCL17ASD93_0000/KR42BISXCL17ASD93_20200227060000_0000_linea_1.jpg'
p5
sS'pt2'
p6
(I803
I580
tp7
sS'pt1'
p8
(I18
I994
tp9
sS'error'
p10
I00
sbaa(lp11
(iCounter.linecounter
selecttwoLines
p12
(dp13
g4
S'/monitoreo/Aforos/Peticion_3/27022020/27022020_KR42BISXCL17ASD93_0000/KR42BISXCL17ASD93_20200227060000_0000_lineaCondicional_1.jpg'
p14
sg10
I00
sS'pt4'
p15
(I834
I1047
tp16
sS'pt3'
p17
(I13
I335
tp18
sg6
(I909
I122
tp19
sg8
(I10
I383
tp20
sba(iCounter.linecounter
selecttwoLines
p21
(dp22
g4
S'/monitoreo/Aforos/Peticion_3/27022020/27022020_KR42BISXCL17ASD93_0000/KR42BISXCL17ASD93_20200227060000_0000_lineaCondicional_2.jpg'
p23
sg10
I00
sg15
(I337
I1055
tp24
sg17
(I1503
I280
tp25
sg6
(I929
I80
tp26
sg8
(I22
I378
tp27
sbaa.