(lp0
I0
aI4
a(lp1
a(lp2
(iCounter.linecounter
selecttwoLines
p3
(dp4
S'archivosalidajpg'
p5
S'/monitoreo/Aforos/Peticion_4/05032020/05032020_KR128XDG146ASD109_0000/KR128XDG146ASD109_20200305060000_0000_lineaCondicional_1.jpg'
p6
sS'error'
p7
I00
sS'pt4'
p8
(I2
I382
tp9
sS'pt3'
p10
(I380
I141
tp11
sS'pt2'
p12
(I597
I447
tp13
sS'pt1'
p14
(I779
I150
tp15
sba(iCounter.linecounter
selecttwoLines
p16
(dp17
g5
S'/monitoreo/Aforos/Peticion_4/05032020/05032020_KR128XDG146ASD109_0000/KR128XDG146ASD109_20200305060000_0000_lineaCondicional_2.jpg'
p18
sg7
I00
sg8
(I494
I203
tp19
sg10
(I772
I215
tp20
sg12
(I713
I451
tp21
sg14
(I805
I147
tp22
sba(iCounter.linecounter
selecttwoLines
p23
(dp24
g5
S'/monitoreo/Aforos/Peticion_4/05032020/05032020_KR128XDG146ASD109_0000/KR128XDG146ASD109_20200305060000_0000_lineaCondicional_3.jpg'
p25
sg7
I00
sg8
(I439
I455
tp26
sg10
(I24
I294
tp27
sg12
(I589
I219
tp28
sg14
(I295
I126
tp29
sba(iCounter.linecounter
selecttwoLines
p30
(dp31
g5
S'/monitoreo/Aforos/Peticion_4/05032020/05032020_KR128XDG146ASD109_0000/KR128XDG146ASD109_20200305060000_0000_lineaCondicional_4.jpg'
p32
sg7
I00
sg8
(I40
I236
tp33
sg10
(I271
I136
tp34
sg12
(I526
I243
tp35
sg14
(I296
I140
tp36
sbaa.