(lp0
I1
aI3
a(lp1
(iCounter.linecounter
selectLine
p2
(dp3
S'archivosalidajpg'
p4
S'/monitoreo/Aforos/Peticion_4/03032020/03032020_CL99XKR13YKR11SD76_0000/CL99XKR13YKR11SD76_20200303060000_0000_linea_1.jpg'
p5
sS'pt2'
p6
(I1672
I876
tp7
sS'pt1'
p8
(I1747
I387
tp9
sS'error'
p10
I00
sbaa(lp11
(iCounter.linecounter
selecttwoLines
p12
(dp13
g4
S'/monitoreo/Aforos/Peticion_4/03032020/03032020_CL99XKR13YKR11SD76_0000/CL99XKR13YKR11SD76_20200303060000_0000_lineaCondicional_1.jpg'
p14
sg10
I00
sS'pt4'
p15
(I938
I264
tp16
sS'pt3'
p17
(I401
I587
tp18
sg6
(I396
I520
tp19
sg8
(I1477
I871
tp20
sba(iCounter.linecounter
selecttwoLines
p21
(dp22
g4
S'/monitoreo/Aforos/Peticion_4/03032020/03032020_CL99XKR13YKR11SD76_0000/CL99XKR13YKR11SD76_20200303060000_0000_lineaCondicional_2.jpg'
p23
sg10
I00
sg15
(I804
I284
tp24
sg17
(I1558
I562
tp25
sg6
(I1336
I930
tp26
sg8
(I357
I570
tp27
sba(iCounter.linecounter
selecttwoLines
p28
(dp29
g4
S'/monitoreo/Aforos/Peticion_4/03032020/03032020_CL99XKR13YKR11SD76_0000/CL99XKR13YKR11SD76_20200303060000_0000_lineaCondicional_3.jpg'
p30
sg10
I00
sg15
(I314
I621
tp31
sg17
(I901
I270
tp32
sg6
(I871
I815
tp33
sg8
(I1406
I368
tp34
sbaa.