(lp0
I1
aI1
a(lp1
(iCounter.linecounter
selectLine
p2
(dp3
S'archivosalidajpg'
p4
S'/monitoreo/Aforos/Peticion_4/03032020/03032020_KR8CXCL1SD92_0000/KR8CXCL1SD92_20200303060000_0000_linea_1.jpg'
p5
sS'pt2'
p6
(I731
I549
tp7
sS'pt1'
p8
(I430
I321
tp9
sS'error'
p10
I00
sbaa(lp11
(iCounter.linecounter
selecttwoLines
p12
(dp13
g4
S'/monitoreo/Aforos/Peticion_4/03032020/03032020_KR8CXCL1SD92_0000/KR8CXCL1SD92_20200303060000_0000_lineaCondicional_1.jpg'
p14
sg10
I00
sS'pt4'
p15
(I232
I960
tp16
sS'pt3'
p17
(I1035
I630
tp18
sg6
(I651
I432
tp19
sg8
(I157
I580
tp20
sbaa.