(lp0
I2
aI1
a(lp1
(iCounter.linecounter
selectLine
p2
(dp3
S'archivosalidajpg'
p4
S'/monitoreo/Aforos/Peticion_3/22022020_EDEN/22022020_KR72XCL15SD7_0000/atomfixed/KR72XCL15SD7_20200222060000_0000_linea_1.jpg'
p5
sS'pt2'
p6
(I1915
I589
tp7
sS'pt1'
p8
(I1441
I471
tp9
sS'error'
p10
I00
sba(iCounter.linecounter
selectLine
p11
(dp12
g4
S'/monitoreo/Aforos/Peticion_3/22022020_EDEN/22022020_KR72XCL15SD7_0000/atomfixed/KR72XCL15SD7_20200222060000_0000_linea_2.jpg'
p13
sg6
(I1915
I320
tp14
sg8
(I1529
I272
tp15
sg10
I00
sbaa(lp16
(iCounter.linecounter
selecttwoLines
p17
(dp18
g4
S'/monitoreo/Aforos/Peticion_3/22022020_EDEN/22022020_KR72XCL15SD7_0000/atomfixed/KR72XCL15SD7_20200222060000_0000_lineaCondicional_1.jpg'
p19
sg10
I00
sS'pt4'
p20
(I1915
I634
tp21
sS'pt3'
p22
(I1361
I516
tp23
sg6
(I1694
I340
tp24
sg8
(I1472
I613
tp25
sbaa.