(lp0
I1
aI0
a(lp1
(iCounter.linecounter
selectLine
p2
(dp3
S'archivosalidajpg'
p4
S'/monitoreo/Aforos/bicicletas_COVID/1demayoXcaracas/CAM73_20200414120000_1_linea_1.jpg'
p5
sS'pt2'
p6
(I1431
I524
tp7
sS'pt1'
p8
(I117
I280
tp9
sS'error'
p10
I00
sbaa(lp11
a.