(lp0
I3
aI0
a(lp1
(iCounter.linecounter
selectLine
p2
(dp3
S'archivosalidajpg'
p4
S'/monitoreo/Aforos/Peticion_3/22022020_EDEN/22022020_KR72XCL15SD63_0000/atomfixed/KR72XCL15SD63_20200222060000_0000_linea_1.jpg'
p5
sS'pt2'
p6
(I1045
I595
tp7
sS'pt1'
p8
(I545
I652
tp9
sS'error'
p10
I00
sba(iCounter.linecounter
selectLine
p11
(dp12
g4
S'/monitoreo/Aforos/Peticion_3/22022020_EDEN/22022020_KR72XCL15SD63_0000/atomfixed/KR72XCL15SD63_20200222060000_0000_linea_2.jpg'
p13
sg6
(I1492
I573
tp14
sg8
(I1045
I595
tp15
sg10
I00
sba(iCounter.linecounter
selectLine
p16
(dp17
g4
S'/monitoreo/Aforos/Peticion_3/22022020_EDEN/22022020_KR72XCL15SD63_0000/atomfixed/KR72XCL15SD63_20200222060000_0000_linea_3.jpg'
p18
sg6
(I1704
I342
tp19
sg8
(I1488
I574
tp20
sg10
I00
sbaa(lp21
a.