(lp0
I1
aI2
a(lp1
(iCounter.linecounter
selectLine
p2
(dp3
S'archivosalidajpg'
p4
S'/monitoreo/Aforos/Peticion_3/22022020_EDEN/22022020_CL12CXKR71DSD27_0000/atomfixed/CL12CXKR71DSD27_20200222060000_0000_linea_1.jpg'
p5
sS'pt2'
p6
(I512
I1010
tp7
sS'pt1'
p8
(I1184
I435
tp9
sS'error'
p10
I00
sbaa(lp11
(iCounter.linecounter
selecttwoLines
p12
(dp13
g4
S'/monitoreo/Aforos/Peticion_3/22022020_EDEN/22022020_CL12CXKR71DSD27_0000/atomfixed/CL12CXKR71DSD27_20200222060000_0000_lineaCondicional_1.jpg'
p14
sg10
I00
sS'pt4'
p15
(I1166
I239
tp16
sS'pt3'
p17
(I809
I232
tp18
sg6
(I938
I607
tp19
sg8
(I356
I439
tp20
sba(iCounter.linecounter
selecttwoLines
p21
(dp22
g4
S'/monitoreo/Aforos/Peticion_3/22022020_EDEN/22022020_CL12CXKR71DSD27_0000/atomfixed/CL12CXKR71DSD27_20200222060000_0000_lineaCondicional_2.jpg'
p23
sg10
I00
sg15
(I1785
I980
tp24
sg17
(I1710
I419
tp25
sg6
(I1798
I969
tp26
sg8
(I1061
I696
tp27
sbaa.