(lp0
I0
aI2
a(lp1
a(lp2
(iCounter.linecounter
selecttwoLines
p3
(dp4
S'archivosalidajpg'
p5
S'/monitoreo/Aforos/Peticion_4/03032020/03032020_CL99XKR13YKR11SD80_0000/CL99XKR13YKR11SD80_20200303060000_0000_lineaCondicional_1.jpg'
p6
sS'error'
p7
I00
sS'pt4'
p8
(I2
I286
tp9
sS'pt3'
p10
(I761
I102
tp11
sS'pt2'
p12
(I1124
I795
tp13
sS'pt1'
p14
(I697
I142
tp15
sba(iCounter.linecounter
selecttwoLines
p16
(dp17
g5
S'/monitoreo/Aforos/Peticion_4/03032020/03032020_CL99XKR13YKR11SD80_0000/CL99XKR13YKR11SD80_20200303060000_0000_lineaCondicional_2.jpg'
p18
sg7
I00
sg8
(I1061
I782
tp19
sg10
(I623
I135
tp20
sg12
(I-3
I625
tp21
sg14
(I989
I894
tp22
sbaa.