(lp0
I1
aI0
a(lp1
(iCounter.linecounter
selectLine
p2
(dp3
S'archivosalidajpg'
p4
S'/monitoreo/Aforos/Peticion_3/22022020_EDEN/22022020_ACCESOSEWENEDENSD41_0000/atomfixed/ACCESOSEWENEDENSD41_20200222060000_0000_linea_1.jpg'
p5
sS'pt2'
p6
(I1125
I739
tp7
sS'pt1'
p8
(I1227
I200
tp9
sS'error'
p10
I00
sbaa(lp11
a.