(lp0
I1
aI0
a(lp1
(iCounter.linecounter
selectLine
p2
(dp3
S'archivosalidajpg'
p4
S'/monitoreo/Aforos/bicicletas_COVID/kr 68 x cl 44 sur/falta/CAM89_20200414170000_1_linea_1.jpg'
p5
sS'pt2'
p6
(I1875
I1009
tp7
sS'pt1'
p8
(I136
I448
tp9
sS'error'
p10
I00
sbaa(lp11
a.