(lp0
I2
aI1
a(lp1
(iCounter.linecounter
selectLine
p2
(dp3
S'archivosalidajpg'
p4
S'/monitoreo/Aforos/Peticion_3/27022020/27022020_KR49Y50XCL98SD17_0000/KR49Y50XCL98SD17_20200227060000_0000_linea_1.jpg'
p5
sS'pt2'
p6
(I523
I516
tp7
sS'pt1'
p8
(I305
I413
tp9
sS'error'
p10
I00
sba(iCounter.linecounter
selectLine
p11
(dp12
g4
S'/monitoreo/Aforos/Peticion_3/27022020/27022020_KR49Y50XCL98SD17_0000/KR49Y50XCL98SD17_20200227060000_0000_linea_2.jpg'
p13
sg6
(I1155
I802
tp14
sg8
(I523
I516
tp15
sg10
I00
sbaa(lp16
(iCounter.linecounter
selecttwoLines
p17
(dp18
g4
S'/monitoreo/Aforos/Peticion_3/27022020/27022020_KR49Y50XCL98SD17_0000/KR49Y50XCL98SD17_20200227060000_0000_lineaCondicional_1.jpg'
p19
sg10
I00
sS'pt4'
p20
(I644
I307
tp21
sS'pt3'
p22
(I1408
I260
tp23
sg6
(I1110
I838
tp24
sg8
(I1264
I219
tp25
sbaa.