(lp0
I0
aI3
a(lp1
a(lp2
(iCounter.linecounter
selecttwoLines
p3
(dp4
S'archivosalidajpg'
p5
S'/monitoreo/Aforos/Peticion_3/27022020/27022020_KR50XCL5CSD100_0000/KR50XCL5CSD100_20200227060000_0000_lineaCondicional_1.jpg'
p6
sS'error'
p7
I00
sS'pt4'
p8
(I12
I638
tp9
sS'pt3'
p10
(I336
I193
tp11
sS'pt2'
p12
(I993
I194
tp13
sS'pt1'
p14
(I232
I257
tp15
sba(iCounter.linecounter
selecttwoLines
p16
(dp17
g5
S'/monitoreo/Aforos/Peticion_3/27022020/27022020_KR50XCL5CSD100_0000/KR50XCL5CSD100_20200227060000_0000_lineaCondicional_2.jpg'
p18
sg7
I00
sg8
(I1010
I532
tp19
sg10
(I28
I567
tp20
sg12
(I964
I191
tp21
sg14
(I200
I281
tp22
sba(iCounter.linecounter
selecttwoLines
p23
(dp24
g5
S'/monitoreo/Aforos/Peticion_3/27022020/27022020_KR50XCL5CSD100_0000/KR50XCL5CSD100_20200227060000_0000_lineaCondicional_3.jpg'
p25
sg7
I00
sg8
(I908
I489
tp26
sg10
(I907
I112
tp27
sg12
(I977
I197
tp28
sg14
(I232
I258
tp29
sbaa.