(lp0
I0
aI3
a(lp1
a(lp2
(iCounter.linecounter
selecttwoLines
p3
(dp4
S'archivosalidajpg'
p5
S'/monitoreo/Aforos/Peticion_3/27022020/27022020_KR15XCL69SD03_0000/KR15XCL69SD03_20200227060000_0000_lineaCondicional_1.jpg'
p6
sS'error'
p7
I00
sS'pt4'
p8
(I1053
I1083
tp9
sS'pt3'
p10
(I430
I552
tp11
sS'pt2'
p12
(I331
I647
tp13
sS'pt1'
p14
(I1336
I442
tp15
sba(iCounter.linecounter
selecttwoLines
p16
(dp17
g5
S'/monitoreo/Aforos/Peticion_3/27022020/27022020_KR15XCL69SD03_0000/KR15XCL69SD03_20200227060000_0000_lineaCondicional_2.jpg'
p18
sg7
I00
sg8
(I1106
I1076
tp19
sg10
(I1271
I412
tp20
sg12
(I242
I683
tp21
sg14
(I1289
I410
tp22
sba(iCounter.linecounter
selecttwoLines
p23
(dp24
g5
S'/monitoreo/Aforos/Peticion_3/27022020/27022020_KR15XCL69SD03_0000/KR15XCL69SD03_20200227060000_0000_lineaCondicional_3.jpg'
p25
sg7
I00
sg8
(I1416
I773
tp26
sg10
(I1866
I1020
tp27
sg12
(I1911
I941
tp28
sg14
(I1589
I754
tp29
sbaa.