(lp0
I0
aI5
a(lp1
a(lp2
(iCounter.linecounter
selecttwoLines
p3
(dp4
S'archivosalidajpg'
p5
S'/monitoreo/Aforos/Peticion_4/04032020/04032020_KR95AXCL52SURSD121_0000/KR95AXCL52SURSD121_20200304060000_0000_lineaCondicional_1.jpg'
p6
sS'error'
p7
I00
sS'pt4'
p8
(I831
I345
tp9
sS'pt3'
p10
(I246
I377
tp11
sS'pt2'
p12
(I344
I400
tp13
sS'pt1'
p14
(I329
I174
tp15
sba(iCounter.linecounter
selecttwoLines
p16
(dp17
g5
S'/monitoreo/Aforos/Peticion_4/04032020/04032020_KR95AXCL52SURSD121_0000/KR95AXCL52SURSD121_20200304060000_0000_lineaCondicional_2.jpg'
p18
sg7
I00
sg8
(I764
I372
tp19
sg10
(I535
I113
tp20
sg12
(I366
I438
tp21
sg14
(I325
I104
tp22
sba(iCounter.linecounter
selecttwoLines
p23
(dp24
g5
S'/monitoreo/Aforos/Peticion_4/04032020/04032020_KR95AXCL52SURSD121_0000/KR95AXCL52SURSD121_20200304060000_0000_lineaCondicional_3.jpg'
p25
sg7
I00
sg8
(I329
I203
tp26
sg10
(I315
I88
tp27
sg12
(I535
I73
tp28
sg14
(I284
I110
tp29
sba(iCounter.linecounter
selecttwoLines
p30
(dp31
g5
S'/monitoreo/Aforos/Peticion_4/04032020/04032020_KR95AXCL52SURSD121_0000/KR95AXCL52SURSD121_20200304060000_0000_lineaCondicional_4.jpg'
p32
sg7
I00
sg8
(I507
I181
tp33
sg10
(I283
I192
tp34
sg12
(I531
I85
tp35
sg14
(I296
I106
tp36
sba(iCounter.linecounter
selecttwoLines
p37
(dp38
g5
S'/monitoreo/Aforos/Peticion_4/04032020/04032020_KR95AXCL52SURSD121_0000/KR95AXCL52SURSD121_20200304060000_0000_lineaCondicional_5.jpg'
p39
sg7
I00
sg8
(I849
I298
tp40
sg10
(I529
I71
tp41
sg12
(I545
I84
tp42
sg14
(I283
I117
tp43
sbaa.