(lp0
I1
aI3
a(lp1
(iCounter.linecounter
selectLine
p2
(dp3
S'archivosalidajpg'
p4
S'/monitoreo/Aforos/Peticion_3/18022020/18022020_KR7CL7SSD41_0000/faltantes/atomfixed/KR7CL7SSD41_20200218110500_0000_linea_1.jpg'
p5
sS'pt2'
p6
(I773
I336
tp7
sS'pt1'
p8
(I998
I74
tp9
sS'error'
p10
I00
sbaa(lp11
(iCounter.linecounter
selecttwoLines
p12
(dp13
g4
S'/monitoreo/Aforos/Peticion_3/18022020/18022020_KR7CL7SSD41_0000/faltantes/atomfixed/KR7CL7SSD41_20200218110500_0000_lineaCondicional_1.jpg'
p14
sg10
I00
sS'pt4'
p15
(I675
I182
tp16
sS'pt3'
p17
(I372
I101
tp18
sg6
(I372
I101
tp19
sg8
(I154
I536
tp20
sba(iCounter.linecounter
selecttwoLines
p21
(dp22
g4
S'/monitoreo/Aforos/Peticion_3/18022020/18022020_KR7CL7SSD41_0000/faltantes/atomfixed/KR7CL7SSD41_20200218110500_0000_lineaCondicional_2.jpg'
p23
sg10
I00
sg15
(I738
I235
tp24
sg17
(I1456
I373
tp25
sg6
(I1456
I373
tp26
sg8
(I1402
I844
tp27
sba(iCounter.linecounter
selecttwoLines
p28
(dp29
g4
S'/monitoreo/Aforos/Peticion_3/18022020/18022020_KR7CL7SSD41_0000/faltantes/atomfixed/KR7CL7SSD41_20200218110500_0000_lineaCondicional_3.jpg'
p30
sg10
I00
sg15
(I1125
I1085
tp31
sg17
(I1356
I264
tp32
sg6
(I623
I65
tp33
sg8
(I152
I872
tp34
sbaa.