(lp0
I0
aI2
a(lp1
a(lp2
(iCounter.linecounter
selecttwoLines
p3
(dp4
S'archivosalidajpg'
p5
S'/monitoreo/Aforos/Peticion_3/25022020/25022020_CL12XKR71DSD02_0000/CL12XKR71DSD02_20200225060000_0000_lineaCondicional_1.jpg'
p6
sS'error'
p7
I00
sS'pt4'
p8
(I374
I87
tp9
sS'pt3'
p10
(I621
I229
tp11
sS'pt2'
p12
(I624
I222
tp13
sS'pt1'
p14
(I202
I348
tp15
sba(iCounter.linecounter
selecttwoLines
p16
(dp17
g5
S'/monitoreo/Aforos/Peticion_3/25022020/25022020_CL12XKR71DSD02_0000/CL12XKR71DSD02_20200225060000_0000_lineaCondicional_2.jpg'
p18
sg7
I00
sg8
(I253
I362
tp19
sg10
(I294
I72
tp20
sg12
(I158
I361
tp21
sg14
(I675
I243
tp22
sbaa.