(lp0
I0
aI3
a(lp1
a(lp2
(iCounter.linecounter
selecttwoLines
p3
(dp4
S'archivosalidajpg'
p5
S'/monitoreo/Aforos/Peticion_4/04032020/04032020_KR95AXCL50SURSD130_0000/KR95AXCL50SURSD130_20200304060000_0000_lineaCondicional_1.jpg'
p6
sS'error'
p7
I00
sS'pt4'
p8
(I763
I61
tp9
sS'pt3'
p10
(I259
I318
tp11
sS'pt2'
p12
(I1318
I537
tp13
sS'pt1'
p14
(I268
I306
tp15
sba(iCounter.linecounter
selecttwoLines
p16
(dp17
g5
S'/monitoreo/Aforos/Peticion_4/04032020/04032020_KR95AXCL50SURSD130_0000/KR95AXCL50SURSD130_20200304060000_0000_lineaCondicional_2.jpg'
p18
sg7
I00
sg8
(I1224
I133
tp19
sg10
(I689
I93
tp20
sg12
(I1259
I508
tp21
sg14
(I287
I291
tp22
sba(iCounter.linecounter
selecttwoLines
p23
(dp24
g5
S'/monitoreo/Aforos/Peticion_4/04032020/04032020_KR95AXCL50SURSD130_0000/KR95AXCL50SURSD130_20200304060000_0000_lineaCondicional_3.jpg'
p25
sg7
I00
sg8
(I1173
I55
tp26
sg10
(I1122
I695
tp27
sg12
(I1234
I515
tp28
sg14
(I286
I294
tp29
sbaa.