(lp0
I0
aI2
a(lp1
a(lp2
(iCounter.linecounter
selecttwoLines
p3
(dp4
S'archivosalidajpg'
p5
S'/monitoreo/Aforos/Peticion_3/25022020/25022020_CL12XKR71DSD04_0000/CL12XKR71DSD04_20200225060000_0000_lineaCondicional_1.jpg'
p6
sS'error'
p7
I00
sS'pt4'
p8
(I1804
I386
tp9
sS'pt3'
p10
(I1302
I773
tp11
sS'pt2'
p12
(I960
I279
tp13
sS'pt1'
p14
(I398
I483
tp15
sba(iCounter.linecounter
selecttwoLines
p16
(dp17
g5
S'/monitoreo/Aforos/Peticion_3/25022020/25022020_CL12XKR71DSD04_0000/CL12XKR71DSD04_20200225060000_0000_lineaCondicional_2.jpg'
p18
sg7
I00
sg8
(I1150
I708
tp19
sg10
(I296
I371
tp20
sg12
(I880
I259
tp21
sg14
(I364
I446
tp22
sbaa.