(lp0
I3
aI4
a(lp1
(iCounter.linecounter
selectLine
p2
(dp3
S'archivosalidajpg'
p4
S'/monitoreo/Aforos/Peticion_3/18022020/18022020_AK71CL18SSD75_0000/atomfixed/AK71CL18SSD75_20200218060000_0000_linea_1.jpg'
p5
sS'pt2'
p6
(I855
I284
tp7
sS'pt1'
p8
(I291
I151
tp9
sS'error'
p10
I00
sba(iCounter.linecounter
selectLine
p11
(dp12
g4
S'/monitoreo/Aforos/Peticion_3/18022020/18022020_AK71CL18SSD75_0000/atomfixed/AK71CL18SSD75_20200218060000_0000_linea_2.jpg'
p13
sg6
(I1238
I381
tp14
sg8
(I1362
I143
tp15
sg10
I00
sba(iCounter.linecounter
selectLine
p16
(dp17
g4
S'/monitoreo/Aforos/Peticion_3/18022020/18022020_AK71CL18SSD75_0000/atomfixed/AK71CL18SSD75_20200218060000_0000_linea_3.jpg'
p18
sg6
(I1915
I987
tp19
sg8
(I1248
I786
tp20
sg10
I00
sbaa(lp21
(iCounter.linecounter
selecttwoLines
p22
(dp23
g4
S'/monitoreo/Aforos/Peticion_3/18022020/18022020_AK71CL18SSD75_0000/atomfixed/AK71CL18SSD75_20200218060000_0000_lineaCondicional_1.jpg'
p24
sg10
I00
sS'pt4'
p25
(I1719
I717
tp26
sS'pt3'
p27
(I1427
I1067
tp28
sg6
(I1427
I1069
tp29
sg8
(I787
I688
tp30
sba(iCounter.linecounter
selecttwoLines
p31
(dp32
g4
S'/monitoreo/Aforos/Peticion_3/18022020/18022020_AK71CL18SSD75_0000/atomfixed/AK71CL18SSD75_20200218060000_0000_lineaCondicional_2.jpg'
p33
sg10
I00
sg25
(I897
I160
tp34
sg27
(I1568
I421
tp35
sg6
(I1375
I1067
tp36
sg8
(I665
I752
tp37
sba(iCounter.linecounter
selecttwoLines
p38
(dp39
g4
S'/monitoreo/Aforos/Peticion_3/18022020/18022020_AK71CL18SSD75_0000/atomfixed/AK71CL18SSD75_20200218060000_0000_lineaCondicional_3.jpg'
p40
sg10
I00
sg25
(I364
I292
tp41
sg27
(I772
I29
tp42
sg6
(I772
I29
tp43
sg8
(I1281
I270
tp44
sba(iCounter.linecounter
selecttwoLines
p45
(dp46
g4
S'/monitoreo/Aforos/Peticion_3/18022020/18022020_AK71CL18SSD75_0000/atomfixed/AK71CL18SSD75_20200218060000_0000_lineaCondicional_4.jpg'
p47
sg10
I00
sg25
(I1136
I1083
tp48
sg27
(I1555
I334
tp49
sg6
(I618
I169
tp50
sg8
(I93
I441
tp51
sbaa.