(lp0
I2
aI0
a(lp1
(iCounter.linecounter
selectLine
p2
(dp3
S'archivosalidajpg'
p4
S'/monitoreo/Aforos/Peticion_3/25022020/25022020_AVBOYACAXCL15SD94_0000/AVBOYACAXCL15SD94_20200225060000_0000_linea_1.jpg'
p5
sS'pt2'
p6
(I1281
I381
tp7
sS'pt1'
p8
(I461
I705
tp9
sS'error'
p10
I00
sba(iCounter.linecounter
selectLine
p11
(dp12
g4
S'/monitoreo/Aforos/Peticion_3/25022020/25022020_AVBOYACAXCL15SD94_0000/AVBOYACAXCL15SD94_20200225060000_0000_linea_2.jpg'
p13
sg6
(I1607
I148
tp14
sg8
(I1304
I390
tp15
sg10
I00
sbaa(lp16
a.