(lp0
I3
aI0
a(lp1
(iCounter.linecounter
selectLine
p2
(dp3
S'archivosalidajpg'
p4
S'/media/francisco/monitoreo/Aforos/Peticion_3/26022020/26022020_KR1XCL93SSD27_0000/P0/KR1XCL93SSD27_20200226060000_0000_linea_1.jpg'
p5
sS'pt2'
p6
(I1053
I765
tp7
sS'pt1'
p8
(I269
I195
tp9
sS'error'
p10
I00
sba(iCounter.linecounter
selectLine
p11
(dp12
g4
S'/media/francisco/monitoreo/Aforos/Peticion_3/26022020/26022020_KR1XCL93SSD27_0000/P0/KR1XCL93SSD27_20200226060000_0000_linea_2.jpg'
p13
sg6
(I1376
I237
tp14
sg8
(I1174
I417
tp15
sg10
I00
sba(iCounter.linecounter
selectLine
p16
(dp17
g4
S'/media/francisco/monitoreo/Aforos/Peticion_3/26022020/26022020_KR1XCL93SSD27_0000/P0/KR1XCL93SSD27_20200226060000_0000_linea_3.jpg'
p18
sg6
(I770
I220
tp19
sg8
(I633
I93
tp20
sg10
I00
sbaa(lp21
a.