(lp0
I0
aI3
a(lp1
a(lp2
(iCounter.linecounter
selecttwoLines
p3
(dp4
S'archivosalidajpg'
p5
S'/monitoreo/Aforos/Peticion_4/04032020/04032020_KR95AXCL52SURSD81_0000/KR95AXCL52SURSD81_20200304060000_0000_lineaCondicional_1.jpg'
p6
sS'error'
p7
I00
sS'pt4'
p8
(I372
I404
tp9
sS'pt3'
p10
(I123
I203
tp11
sS'pt2'
p12
(I575
I79
tp13
sS'pt1'
p14
(I153
I227
tp15
sba(iCounter.linecounter
selecttwoLines
p16
(dp17
g5
S'/monitoreo/Aforos/Peticion_4/04032020/04032020_KR95AXCL52SURSD81_0000/KR95AXCL52SURSD81_20200304060000_0000_lineaCondicional_2.jpg'
p18
sg7
I00
sg8
(I424
I437
tp19
sg10
(I821
I191
tp20
sg12
(I631
I37
tp21
sg14
(I134
I210
tp22
sba(iCounter.linecounter
selecttwoLines
p23
(dp24
g5
S'/monitoreo/Aforos/Peticion_4/04032020/04032020_KR95AXCL52SURSD81_0000/KR95AXCL52SURSD81_20200304060000_0000_lineaCondicional_3.jpg'
p25
sg7
I00
sg8
(I853
I177
tp26
sg10
(I482
I82
tp27
sg12
(I498
I88
tp28
sg14
(I146
I208
tp29
sbaa.