(lp0
I0
aI3
a(lp1
a(lp2
(iCounter.linecounter
selecttwoLines
p3
(dp4
S'archivosalidajpg'
p5
S'/monitoreo/Aforos/Peticion_4/04032020/04032020_KR95AXCL52SURSD81_0000/KR95AXCL52SURSD81_20200304060000_0000_lineaCondicional_1.jpg'
p6
sS'error'
p7
I00
sS'pt4'
p8
(I865
I49
tp9
sS'pt3'
p10
(I247
I326
tp11
sS'pt2'
p12
(I1355
I746
tp13
sS'pt1'
p14
(I286
I337
tp15
sba(iCounter.linecounter
selecttwoLines
p16
(dp17
g5
S'/monitoreo/Aforos/Peticion_4/04032020/04032020_KR95AXCL52SURSD81_0000/KR95AXCL52SURSD81_20200304060000_0000_lineaCondicional_2.jpg'
p18
sg7
I00
sg8
(I1387
I206
tp19
sg10
(I757
I74
tp20
sg12
(I1377
I688
tp21
sg14
(I301
I312
tp22
sba(iCounter.linecounter
selecttwoLines
p23
(dp24
g5
S'/monitoreo/Aforos/Peticion_4/04032020/04032020_KR95AXCL52SURSD81_0000/KR95AXCL52SURSD81_20200304060000_0000_lineaCondicional_3.jpg'
p25
sg7
I00
sg8
(I1341
I138
tp26
sg10
(I1333
I781
tp27
sg12
(I1364
I670
tp28
sg14
(I260
I283
tp29
sbaa.