(lp0
I2
aI0
a(lp1
(iCounter.linecounter
selectLine
p2
(dp3
S'archivosalidajpg'
p4
S'/monitoreo/Aforos/Peticion_3/22022020_EDEN/22022020_CL13XKR71DSD72_0000/falta/atomfixed/P1/CL13XKR71DSD72_20200222162500_0000_linea_1.jpg'
p5
sS'pt2'
p6
(I603
I587
tp7
sS'pt1'
p8
(I33
I319
tp9
sS'error'
p10
I00
sba(iCounter.linecounter
selectLine
p11
(dp12
g4
S'/monitoreo/Aforos/Peticion_3/22022020_EDEN/22022020_CL13XKR71DSD72_0000/falta/atomfixed/P1/CL13XKR71DSD72_20200222162500_0000_linea_2.jpg'
p13
sg6
(I1601
I407
tp14
sg8
(I603
I587
tp15
sg10
I00
sbaa(lp16
a.