(lp0
I1
aI0
a(lp1
(iCounter.linecounter
selectLine
p2
(dp3
S'archivosalidajpg'
p4
S'/monitoreo/Aforos/bicicletas_COVID/1 de mayo x cl 43 sur/CAM93_20200414060000_1_linea_1.jpg'
p5
sS'pt2'
p6
(I1058
I464
tp7
sS'pt1'
p8
(I3
I115
tp9
sS'error'
p10
I00
sbaa(lp11
a.