(lp0
I3
aI0
a(lp1
(iCounter.linecounter
selectLine
p2
(dp3
S'archivosalidajpg'
p4
S'/monitoreo/Aforos/Peticion_3/22022020_EDEN/22022020_KR72XCL15SD34_0000/atomfixed/KR72XCL15SD34_20200222060000_0000_linea_1.jpg'
p5
sS'pt2'
p6
(I338
I523
tp7
sS'pt1'
p8
(I72
I433
tp9
sS'error'
p10
I00
sba(iCounter.linecounter
selectLine
p11
(dp12
g4
S'/monitoreo/Aforos/Peticion_3/22022020_EDEN/22022020_KR72XCL15SD34_0000/atomfixed/KR72XCL15SD34_20200222060000_0000_linea_2.jpg'
p13
sg6
(I927
I635
tp14
sg8
(I199
I658
tp15
sg10
I00
sba(iCounter.linecounter
selectLine
p16
(dp17
g4
S'/monitoreo/Aforos/Peticion_3/22022020_EDEN/22022020_KR72XCL15SD34_0000/atomfixed/KR72XCL15SD34_20200222060000_0000_linea_3.jpg'
p18
sg6
(I648
I599
tp19
sg8
(I866
I222
tp20
sg10
I00
sbaa(lp21
a.