(lp0
I2
aI2
a(lp1
(iCounter.linecounter
selectLine
p2
(dp3
S'archivosalidajpg'
p4
S'/monitoreo/Aforos/Peticion_3/22022020_EDEN/22022020_CL12CXKR71DSD39_0000/atomfixed/CL12CXKR71DSD39_20200222060002_0000_linea_1.jpg'
p5
sS'pt2'
p6
(I1058
I624
tp7
sS'pt1'
p8
(I46
I716
tp9
sS'error'
p10
I00
sba(iCounter.linecounter
selectLine
p11
(dp12
g4
S'/monitoreo/Aforos/Peticion_3/22022020_EDEN/22022020_CL12CXKR71DSD39_0000/atomfixed/CL12CXKR71DSD39_20200222060002_0000_linea_2.jpg'
p13
sg6
(I976
I518
tp14
sg8
(I947
I205
tp15
sg10
I00
sbaa(lp16
(iCounter.linecounter
selecttwoLines
p17
(dp18
g4
S'/monitoreo/Aforos/Peticion_3/22022020_EDEN/22022020_CL12CXKR71DSD39_0000/atomfixed/CL12CXKR71DSD39_20200222060002_0000_lineaCondicional_1.jpg'
p19
sg10
I00
sS'pt4'
p20
(I1312
I330
tp21
sS'pt3'
p22
(I962
I407
tp23
sg6
(I1604
I917
tp24
sg8
(I871
I769
tp25
sba(iCounter.linecounter
selecttwoLines
p26
(dp27
g4
S'/monitoreo/Aforos/Peticion_3/22022020_EDEN/22022020_CL12CXKR71DSD39_0000/atomfixed/CL12CXKR71DSD39_20200222060002_0000_lineaCondicional_2.jpg'
p28
sg10
I00
sg20
(I1362
I487
tp29
sg22
(I1308
I950
tp30
sg6
(I939
I442
tp31
sg8
(I501
I496
tp32
sbaa.