(lp0
I1
aI0
a(lp1
(iCounter.linecounter
selectLine
p2
(dp3
S'archivosalidajpg'
p4
S'/monitoreo/Aforos/Peticion_3/22022020_EDEN/22022020_CL13XKR71DSD24_0000/faltantes/CL13XKR71DSD24_20200222130000_0000_linea_1.jpg'
p5
sS'pt2'
p6
(I1907
I371
tp7
sS'pt1'
p8
(I7
I351
tp9
sS'error'
p10
I00
sbaa(lp11
a.