(lp0
I0
aI4
a(lp1
a(lp2
(iCounter.linecounter
selecttwoLines
p3
(dp4
S'archivosalidajpg'
p5
S'/monitoreo/Aforos/Peticion_4/04032020/04032020_KR1AXDG40ASURSD88_0000/KR1AXDG40ASURSD88_20200304060000_0000_lineaCondicional_1.jpg'
p6
sS'error'
p7
I00
sS'pt4'
p8
(I1327
I183
tp9
sS'pt3'
p10
(I1242
I760
tp11
sS'pt2'
p12
(I1292
I685
tp13
sS'pt1'
p14
(I241
I281
tp15
sba(iCounter.linecounter
selecttwoLines
p16
(dp17
g5
S'/monitoreo/Aforos/Peticion_4/04032020/04032020_KR1AXDG40ASURSD88_0000/KR1AXDG40ASURSD88_20200304060000_0000_lineaCondicional_2.jpg'
p18
sg7
I00
sg8
(I204
I310
tp19
sg10
(I772
I74
tp20
sg12
(I1140
I737
tp21
sg14
(I149
I296
tp22
sba(iCounter.linecounter
selecttwoLines
p23
(dp24
g5
S'/monitoreo/Aforos/Peticion_4/04032020/04032020_KR1AXDG40ASURSD88_0000/KR1AXDG40ASURSD88_20200304060000_0000_lineaCondicional_3.jpg'
p25
sg7
I00
sg8
(I1124
I784
tp26
sg10
(I75
I360
tp27
sg12
(I873
I74
tp28
sg14
(I296
I275
tp29
sba(iCounter.linecounter
selecttwoLines
p30
(dp31
g5
S'/monitoreo/Aforos/Peticion_4/04032020/04032020_KR1AXDG40ASURSD88_0000/KR1AXDG40ASURSD88_20200304060000_0000_lineaCondicional_4.jpg'
p32
sg7
I00
sg8
(I955
I611
tp33
sg10
(I1243
I35
tp34
sg12
(I921
I8
tp35
sg14
(I323
I301
tp36
sbaa.