(lp0
I1
aI0
a(lp1
(iCounter.linecounter
selectLine
p2
(dp3
S'archivosalidajpg'
p4
S'/monitoreo/Aforos/bicicletas_COVID/20200416/kr 9 x caracas (molinos)/CAM103_20200416060000_1_linea_1.jpg'
p5
sS'pt2'
p6
(I1623
I311
tp7
sS'pt1'
p8
(I15
I743
tp9
sS'error'
p10
I00
sbaa(lp11
a.