(lp0
I1
aI2
a(lp1
(iCounter.linecounter
selectLine
p2
(dp3
S'archivosalidajpg'
p4
S'/monitoreo/Aforos/Peticion_4/03032020/03032020_TV73ABISAXDG36BISSURSD127_0000/TV73ABISAXDG36BISSURSD127_20200303060000_0000_linea_1.jpg'
p5
sS'pt2'
p6
(I860
I498
tp7
sS'pt1'
p8
(I859
I300
tp9
sS'error'
p10
I00
sbaa(lp11
(iCounter.linecounter
selecttwoLines
p12
(dp13
g4
S'/monitoreo/Aforos/Peticion_4/03032020/03032020_TV73ABISAXDG36BISSURSD127_0000/TV73ABISAXDG36BISSURSD127_20200303060000_0000_lineaCondicional_1.jpg'
p14
sg10
I00
sS'pt4'
p15
(I645
I679
tp16
sS'pt3'
p17
(I663
I263
tp18
sg6
(I1418
I425
tp19
sg8
(I706
I384
tp20
sba(iCounter.linecounter
selecttwoLines
p21
(dp22
g4
S'/monitoreo/Aforos/Peticion_4/03032020/03032020_TV73ABISAXDG36BISSURSD127_0000/TV73ABISAXDG36BISSURSD127_20200303060000_0000_lineaCondicional_2.jpg'
p23
sg10
I00
sg15
(I1295
I855
tp24
sg17
(I1429
I373
tp25
sg6
(I1494
I406
tp26
sg8
(I677
I369
tp27
sbaa.