(lp0
I2
aI4
a(lp1
(iCounter.linecounter
selectLine
p2
(dp3
S'archivosalidajpg'
p4
S'/monitoreo/Aforos/Peticion_3/18022020/18022020_AK71CL18SSD63_0000/faltantes/atomfixed/AK71CL18SSD63_20200218064000_0000_linea_1.jpg'
p5
sS'pt2'
p6
(I570
I271
tp7
sS'pt1'
p8
(I329
I47
tp9
sS'error'
p10
I00
sba(iCounter.linecounter
selectLine
p11
(dp12
g4
S'/monitoreo/Aforos/Peticion_3/18022020/18022020_AK71CL18SSD63_0000/faltantes/atomfixed/AK71CL18SSD63_20200218064000_0000_linea_2.jpg'
p13
sg6
(I1374
I356
tp14
sg8
(I1727
I88
tp15
sg10
I00
sbaa(lp16
(iCounter.linecounter
selecttwoLines
p17
(dp18
g4
S'/monitoreo/Aforos/Peticion_3/18022020/18022020_AK71CL18SSD63_0000/faltantes/atomfixed/AK71CL18SSD63_20200218064000_0000_lineaCondicional_1.jpg'
p19
sg10
I00
sS'pt4'
p20
(I245
I801
tp21
sS'pt3'
p22
(I209
I254
tp23
sg6
(I515
I149
tp24
sg8
(I222
I253
tp25
sba(iCounter.linecounter
selecttwoLines
p26
(dp27
g4
S'/monitoreo/Aforos/Peticion_3/18022020/18022020_AK71CL18SSD63_0000/faltantes/atomfixed/AK71CL18SSD63_20200218064000_0000_lineaCondicional_2.jpg'
p28
sg10
I00
sg20
(I484
I1011
tp29
sg22
(I1589
I363
tp30
sg6
(I831
I49
tp31
sg8
(I190
I252
tp32
sba(iCounter.linecounter
selecttwoLines
p33
(dp34
g4
S'/monitoreo/Aforos/Peticion_3/18022020/18022020_AK71CL18SSD63_0000/faltantes/atomfixed/AK71CL18SSD63_20200218064000_0000_lineaCondicional_3.jpg'
p35
sg10
I00
sg20
(I849
I1062
tp36
sg22
(I71
I352
tp37
sg6
(I1649
I393
tp38
sg8
(I957
I51
tp39
sba(iCounter.linecounter
selecttwoLines
p40
(dp41
g4
S'/monitoreo/Aforos/Peticion_3/18022020/18022020_AK71CL18SSD63_0000/faltantes/atomfixed/AK71CL18SSD63_20200218064000_0000_lineaCondicional_4.jpg'
p42
sg10
I00
sg20
(I949
I871
tp43
sg22
(I1884
I437
tp44
sg6
(I1884
I437
tp45
sg8
(I1366
I152
tp46
sbaa.