(lp0
I0
aI1
a(lp1
a(lp2
(iCounter.linecounter
selecttwoLines
p3
(dp4
S'archivosalidajpg'
p5
S'/monitoreo/Aforos/Peticion_3/25022020/25022020_CL12XKR71DSD07_0000/CL12XKR71DSD07_20200225060000_0000_lineaCondicional_1.jpg'
p6
sS'error'
p7
I00
sS'pt4'
p8
(I262
I687
tp9
sS'pt3'
p10
(I658
I293
tp11
sS'pt2'
p12
(I658
I293
tp13
sS'pt1'
p14
(I188
I350
tp15
sbaa.