(lp0
I2
aI0
a(lp1
(iCounter.linecounter
selectLine
p2
(dp3
S'archivosalidajpg'
p4
S'/media/francisco/monitoreo/27022020/27022020/27022020_KR49Y50XCL98SD33_0000/KR49Y50XCL98SD33_20200227060000_0000_linea_1.jpg'
p5
sS'pt2'
p6
(I637
I373
tp7
sS'pt1'
p8
(I253
I223
tp9
sS'error'
p10
I00
sba(iCounter.linecounter
selectLine
p11
(dp12
g4
S'/media/francisco/monitoreo/27022020/27022020/27022020_KR49Y50XCL98SD33_0000/KR49Y50XCL98SD33_20200227060000_0000_linea_2.jpg'
p13
sg6
(I1561
I725
tp14
sg8
(I637
I373
tp15
sg10
I00
sbaa(lp16
a.