(lp0
I2
aI2
a(lp1
(iCounter.linecounter
selectLine
p2
(dp3
S'archivosalidajpg'
p4
S'/monitoreo/Aforos/Peticion_3/22022020_EDEN/22022020_KR72XCL12SD13_1357/KR72XCL12SD13A_20200222060048_1357_linea_1.jpg'
p5
sS'pt2'
p6
(I1075
I272
tp7
sS'pt1'
p8
(I977
I176
tp9
sS'error'
p10
I00
sba(iCounter.linecounter
selectLine
p11
(dp12
g4
S'/monitoreo/Aforos/Peticion_3/22022020_EDEN/22022020_KR72XCL12SD13_1357/KR72XCL12SD13A_20200222060048_1357_linea_2.jpg'
p13
sg6
(I500
I290
tp14
sg8
(I528
I179
tp15
sg10
I00
sbaa(lp16
(iCounter.linecounter
selecttwoLines
p17
(dp18
g4
S'/monitoreo/Aforos/Peticion_3/22022020_EDEN/22022020_KR72XCL12SD13_1357/KR72XCL12SD13A_20200222060048_1357_lineaCondicional_1.jpg'
p19
sg10
I00
sS'pt4'
p20
(I921
I133
tp21
sS'pt3'
p22
(I748
I214
tp23
sg6
(I1179
I270
tp24
sg8
(I751
I299
tp25
sba(iCounter.linecounter
selecttwoLines
p26
(dp27
g4
S'/monitoreo/Aforos/Peticion_3/22022020_EDEN/22022020_KR72XCL12SD13_1357/KR72XCL12SD13A_20200222060048_1357_lineaCondicional_2.jpg'
p28
sg10
I00
sg20
(I1098
I247
tp29
sg22
(I913
I130
tp30
sg6
(I1094
I259
tp31
sg8
(I734
I303
tp32
sbaa.