(lp0
I1
aI2
a(lp1
(iCounter.linecounter
selectLine
p2
(dp3
S'archivosalidajpg'
p4
S'/monitoreo/Aforos/Peticion_3/22022020_EDEN/22022020_KR72XCL12SD13_1357/KR72XCL12SD13A_20200222060048_1357_linea_1.jpg'
p5
sS'pt2'
p6
(I272
I309
tp7
sS'pt1'
p8
(I246
I159
tp9
sS'error'
p10
I00
sbaa(lp11
(iCounter.linecounter
selecttwoLines
p12
(dp13
g4
S'/monitoreo/Aforos/Peticion_3/22022020_EDEN/22022020_KR72XCL12SD13_1357/KR72XCL12SD13A_20200222060048_1357_lineaCondicional_1.jpg'
p14
sg10
I00
sS'pt4'
p15
(I235
I241
tp16
sS'pt3'
p17
(I413
I122
tp18
sg6
(I614
I240
tp19
sg8
(I246
I272
tp20
sba(iCounter.linecounter
selecttwoLines
p21
(dp22
g4
S'/monitoreo/Aforos/Peticion_3/22022020_EDEN/22022020_KR72XCL12SD13_1357/KR72XCL12SD13A_20200222060048_1357_lineaCondicional_2.jpg'
p23
sg10
I00
sg15
(I466
I133
tp24
sg17
(I556
I219
tp25
sg6
(I539
I221
tp26
sg8
(I232
I241
tp27
sbaa.