(lp0
I1
aI0
a(lp1
(iCounter.linecounter
selectLine
p2
(dp3
S'archivosalidajpg'
p4
S'/monitoreo/Aforos/bicicletas_COVID/kr 128 x centenario/CAM66_20200414120000_1_linea_1.jpg'
p5
sS'pt2'
p6
(I1111
I478
tp7
sS'pt1'
p8
(I48
I171
tp9
sS'error'
p10
I00
sbaa(lp11
a.