(lp0
I0
aI2
a(lp1
a(lp2
(iCounter.linecounter
selecttwoLines
p3
(dp4
S'archivosalidajpg'
p5
S'/monitoreo/Aforos/Peticion_3/25022020/25022020_CL12XKR71DSD01_0000/CL12XKR71DSD01_20200225060000_0000_lineaCondicional_1.jpg'
p6
sS'error'
p7
I00
sS'pt4'
p8
(I169
I313
tp9
sS'pt3'
p10
(I328
I132
tp11
sS'pt2'
p12
(I643
I244
tp13
sS'pt1'
p14
(I188
I348
tp15
sba(iCounter.linecounter
selecttwoLines
p16
(dp17
g5
S'/monitoreo/Aforos/Peticion_3/25022020/25022020_CL12XKR71DSD01_0000/CL12XKR71DSD01_20200225060000_0000_lineaCondicional_2.jpg'
p18
sg7
I00
sg8
(I345
I118
tp19
sg10
(I604
I238
tp20
sg12
(I627
I251
tp21
sg14
(I166
I337
tp22
sbaa.