(lp0
I3
aI7
a(lp1
(iCounter.linecounter
selectLine
p2
(dp3
S'archivosalidajpg'
p4
S'/monitoreo/Aforos/Peticion_3/18022020/18022020_KR7CL7SSD8_0000/atomfixed/KR7CL7SSD8_20200218060000_0000_linea_1.jpg'
p5
sS'pt2'
p6
(I417
I299
tp7
sS'pt1'
p8
(I13
I196
tp9
sS'error'
p10
I00
sba(iCounter.linecounter
selectLine
p11
(dp12
g4
S'/monitoreo/Aforos/Peticion_3/18022020/18022020_KR7CL7SSD8_0000/atomfixed/KR7CL7SSD8_20200218060000_0000_linea_2.jpg'
p13
sg6
(I887
I227
tp14
sg8
(I1100
I10
tp15
sg10
I00
sba(iCounter.linecounter
selectLine
p16
(dp17
g4
S'/monitoreo/Aforos/Peticion_3/18022020/18022020_KR7CL7SSD8_0000/atomfixed/KR7CL7SSD8_20200218060000_0000_linea_3.jpg'
p18
sg6
(I1899
I693
tp19
sg8
(I1171
I579
tp20
sg10
I00
sbaa(lp21
(iCounter.linecounter
selecttwoLines
p22
(dp23
g4
S'/monitoreo/Aforos/Peticion_3/18022020/18022020_KR7CL7SSD8_0000/atomfixed/KR7CL7SSD8_20200218060000_0000_lineaCondicional_1.jpg'
p24
sg10
I00
sS'pt4'
p25
(I554
I617
tp26
sS'pt3'
p27
(I40
I437
tp28
sg6
(I40
I437
tp29
sg8
(I350
I247
tp30
sba(iCounter.linecounter
selecttwoLines
p31
(dp32
g4
S'/monitoreo/Aforos/Peticion_3/18022020/18022020_KR7CL7SSD8_0000/atomfixed/KR7CL7SSD8_20200218060000_0000_lineaCondicional_2.jpg'
p33
sg10
I00
sg25
(I1197
I855
tp34
sg27
(I1249
I496
tp35
sg6
(I149
I348
tp36
sg8
(I284
I235
tp37
sba(iCounter.linecounter
selecttwoLines
p38
(dp39
g4
S'/monitoreo/Aforos/Peticion_3/18022020/18022020_KR7CL7SSD8_0000/atomfixed/KR7CL7SSD8_20200218060000_0000_lineaCondicional_3.jpg'
p40
sg10
I00
sg25
(I158
I329
tp41
sg27
(I541
I53
tp42
sg6
(I541
I54
tp43
sg8
(I878
I198
tp44
sba(iCounter.linecounter
selecttwoLines
p45
(dp46
g4
S'/monitoreo/Aforos/Peticion_3/18022020/18022020_KR7CL7SSD8_0000/atomfixed/KR7CL7SSD8_20200218060000_0000_lineaCondicional_4.jpg'
p47
sg10
I00
sg25
(I54
I416
tp48
sg27
(I1371
I716
tp49
sg6
(I1349
I274
tp50
sg8
(I477
I84
tp51
sba(iCounter.linecounter
selecttwoLines
p52
(dp53
g4
S'/monitoreo/Aforos/Peticion_3/18022020/18022020_KR7CL7SSD8_0000/atomfixed/KR7CL7SSD8_20200218060000_0000_lineaCondicional_5.jpg'
p54
sg10
I00
sg25
(I1170
I794
tp55
sg27
(I1259
I267
tp56
sg6
(I1259
I267
tp57
sg8
(I865
I195
tp58
sba(iCounter.linecounter
selecttwoLines
p59
(dp60
g4
S'/monitoreo/Aforos/Peticion_3/18022020/18022020_KR7CL7SSD8_0000/atomfixed/KR7CL7SSD8_20200218060000_0000_lineaCondicional_6.jpg'
p61
sg10
I00
sg25
(I1165
I639
tp62
sg27
(I1257
I191
tp63
sg6
(I303
I261
tp64
sg8
(I562
I83
tp65
sba(iCounter.linecounter
selecttwoLines
p66
(dp67
g4
S'/monitoreo/Aforos/Peticion_3/18022020/18022020_KR7CL7SSD8_0000/atomfixed/KR7CL7SSD8_20200218060000_0000_lineaCondicional_7.jpg'
p68
sg10
I00
sg25
(I1571
I399
tp69
sg27
(I1636
I960
tp70
sg6
(I1636
I960
tp71
sg8
(I567
I636
tp72
sbaa.