(lp0
I1
aI0
a(lp1
(iCounter.linecounter
selectLine
p2
(dp3
S'archivosalidajpg'
p4
S'/monitoreo/Aforos/Peticion_3/27022020/27022020_AK72XCL72SD41_0000/AK72XCL72SD41_20200227060000_0000_linea_1.jpg'
p5
sS'pt2'
p6
(I1253
I680
tp7
sS'pt1'
p8
(I452
I460
tp9
sS'error'
p10
I00
sbaa(lp11
a.