(lp0
I1
aI0
a(lp1
(iCounter.linecounter
selectLine
p2
(dp3
S'archivosalidajpg'
p4
S'/monitoreo/Aforos/bicicletas_COVID/20200416/1 de mayo x cl 43 sur/CAM93_20200416060000_1_linea_1.jpg'
p5
sS'pt2'
p6
(I1273
I514
tp7
sS'pt1'
p8
(I15
I164
tp9
sS'error'
p10
I00
sbaa(lp11
a.