(lp0
I1
aI2
a(lp1
(iCounter.linecounter
selectLine
p2
(dp3
S'archivosalidajpg'
p4
S'/monitoreo/Aforos/Peticion_3/22022020_EDEN/22022020_CL12CXKR71DSD70_0000/faltantes/atomfixed/CL12CXKR71DSD70_20200222072000_0000_linea_1.jpg'
p5
sS'pt2'
p6
(I1458
I250
tp7
sS'pt1'
p8
(I1116
I316
tp9
sS'error'
p10
I00
sbaa(lp11
(iCounter.linecounter
selecttwoLines
p12
(dp13
g4
S'/monitoreo/Aforos/Peticion_3/22022020_EDEN/22022020_CL12CXKR71DSD70_0000/faltantes/atomfixed/CL12CXKR71DSD70_20200222072000_0000_lineaCondicional_1.jpg'
p14
sg10
I00
sS'pt4'
p15
(I974
I128
tp16
sS'pt3'
p17
(I662
I375
tp18
sg6
(I1515
I499
tp19
sg8
(I671
I604
tp20
sba(iCounter.linecounter
selecttwoLines
p21
(dp22
g4
S'/monitoreo/Aforos/Peticion_3/22022020_EDEN/22022020_CL12CXKR71DSD70_0000/faltantes/atomfixed/CL12CXKR71DSD70_20200222072000_0000_lineaCondicional_2.jpg'
p23
sg10
I00
sg15
(I1185
I290
tp24
sg17
(I949
I123
tp25
sg6
(I1508
I503
tp26
sg8
(I666
I639
tp27
sbaa.