(lp0
I1
aI2
a(lp1
(iCounter.linecounter
selectLine
p2
(dp3
S'archivosalidajpg'
p4
S'/monitoreo/Aforos/Peticion_3/26022020/26022020_KR1XCL93SSD10_0000/KR1XCL93SSD10_20200226060000_0000_linea_1.jpg'
p5
sS'pt2'
p6
(I139
I1024
tp7
sS'pt1'
p8
(I969
I290
tp9
sS'error'
p10
I00
sbaa(lp11
(iCounter.linecounter
selecttwoLines
p12
(dp13
g4
S'/monitoreo/Aforos/Peticion_3/26022020/26022020_KR1XCL93SSD10_0000/KR1XCL93SSD10_20200226060000_0000_lineaCondicional_1.jpg'
p14
sg10
I00
sS'pt4'
p15
(I1030
I154
tp16
sS'pt3'
p17
(I493
I531
tp18
sg6
(I284
I415
tp19
sg8
(I1544
I972
tp20
sba(iCounter.linecounter
selecttwoLines
p21
(dp22
g4
S'/monitoreo/Aforos/Peticion_3/26022020/26022020_KR1XCL93SSD10_0000/KR1XCL93SSD10_20200226060000_0000_lineaCondicional_2.jpg'
p23
sg10
I00
sg15
(I1384
I169
tp24
sg17
(I1440
I876
tp25
sg6
(I1582
I839
tp26
sg8
(I287
I471
tp27
sbaa.