(lp0
I3
aI0
a(lp1
(iCounter.linecounter
selectLine
p2
(dp3
S'archivosalidajpg'
p4
S'/monitoreo/Aforos/Peticion_3/25022020/25022020_AVBOYACAXCL15SD90_0000/AVBOYACAXCL15SD90_20200225060000_0000_linea_1.jpg'
p5
sS'pt2'
p6
(I624
I673
tp7
sS'pt1'
p8
(I249
I870
tp9
sS'error'
p10
I00
sba(iCounter.linecounter
selectLine
p11
(dp12
g4
S'/monitoreo/Aforos/Peticion_3/25022020/25022020_AVBOYACAXCL15SD90_0000/AVBOYACAXCL15SD90_20200225060000_0000_linea_2.jpg'
p13
sg6
(I864
I427
tp14
sg8
(I624
I673
tp15
sg10
I00
sba(iCounter.linecounter
selectLine
p16
(dp17
g4
S'/monitoreo/Aforos/Peticion_3/25022020/25022020_AVBOYACAXCL15SD90_0000/AVBOYACAXCL15SD90_20200225060000_0000_linea_3.jpg'
p18
sg6
(I1514
I262
tp19
sg8
(I864
I427
tp20
sg10
I00
sbaa(lp21
a.