(lp0
I0
aI3
a(lp1
a(lp2
(iCounter.linecounter
selecttwoLines
p3
(dp4
S'archivosalidajpg'
p5
S'/monitoreo/Aforos/Peticion_4/04032020/04032020_KR95AXCL50SURSD132_0000/KR95AXCL50SURSD132_20200304060000_0000_lineaCondicional_1.jpg'
p6
sS'error'
p7
I00
sS'pt4'
p8
(I216
I373
tp9
sS'pt3'
p10
(I229
I121
tp11
sS'pt2'
p12
(I575
I122
tp13
sS'pt1'
p14
(I272
I149
tp15
sba(iCounter.linecounter
selecttwoLines
p16
(dp17
g5
S'/monitoreo/Aforos/Peticion_4/04032020/04032020_KR95AXCL50SURSD132_0000/KR95AXCL50SURSD132_20200304060000_0000_lineaCondicional_2.jpg'
p18
sg7
I00
sg8
(I788
I203
tp19
sg10
(I209
I253
tp20
sg12
(I548
I125
tp21
sg14
(I227
I153
tp22
sba(iCounter.linecounter
selecttwoLines
p23
(dp24
g5
S'/monitoreo/Aforos/Peticion_4/04032020/04032020_KR95AXCL50SURSD132_0000/KR95AXCL50SURSD132_20200304060000_0000_lineaCondicional_3.jpg'
p25
sg7
I00
sg8
(I722
I361
tp26
sg10
(I563
I100
tp27
sg12
(I514
I116
tp28
sg14
(I257
I150
tp29
sbaa.