(lp0
I3
aI0
a(lp1
(iCounter.linecounter
selectLine
p2
(dp3
S'archivosalidajpg'
p4
S'/monitoreo/Aforos/Peticion_3/22022020_EDEN/22022020_KR72XCL12SD1_2220/KR72XCL12SD1_20200222060000_2220_linea_1.jpg'
p5
sS'pt2'
p6
(I1440
I519
tp7
sS'pt1'
p8
(I664
I639
tp9
sS'error'
p10
I00
sba(iCounter.linecounter
selectLine
p11
(dp12
g4
S'/monitoreo/Aforos/Peticion_3/22022020_EDEN/22022020_KR72XCL12SD1_2220/KR72XCL12SD1_20200222060000_2220_linea_2.jpg'
p13
sg6
(I1665
I323
tp14
sg8
(I1440
I519
tp15
sg10
I00
sba(iCounter.linecounter
selectLine
p16
(dp17
g4
S'/monitoreo/Aforos/Peticion_3/22022020_EDEN/22022020_KR72XCL12SD1_2220/KR72XCL12SD1_20200222060000_2220_linea_3.jpg'
p18
sg6
(I1879
I955
tp19
sg8
(I739
I39
tp20
sg10
I00
sbaa(lp21
a.