(lp0
I2
aI0
a(lp1
(iCounter.linecounter
selectLine
p2
(dp3
S'archivosalidajpg'
p4
S'/monitoreo/Aforos/Peticion_3/26022020/26022020_AK86XAC17SD15_0000/AK86XAC17SD15_20200226060000_0000_linea_1.jpg'
p5
sS'pt2'
p6
(I524
I623
tp7
sS'pt1'
p8
(I204
I327
tp9
sS'error'
p10
I00
sba(iCounter.linecounter
selectLine
p11
(dp12
g4
S'/monitoreo/Aforos/Peticion_3/26022020/26022020_AK86XAC17SD15_0000/AK86XAC17SD15_20200226060000_0000_linea_2.jpg'
p13
sg6
(I1256
I806
tp14
sg8
(I446
I708
tp15
sg10
I00
sbaa(lp16
a.