(lp0
I1
aI0
a(lp1
(iCounter.linecounter
selectLine
p2
(dp3
S'archivosalidajpg'
p4
S'/monitoreo/Aforos/bicicletas_COVID/kr 68 x cl 3/CAM87_20200414120000_1_linea_1.jpg'
p5
sS'pt2'
p6
(I1390
I445
tp7
sS'pt1'
p8
(I30
I306
tp9
sS'error'
p10
I00
sbaa(lp11
a.