(lp0
I4
aI0
a(lp1
(iCounter.linecounter
selectLine
p2
(dp3
S'archivosalidajpg'
p4
S'/monitoreo/Aforos/Peticion_3/22022020_EDEN/22022020_CL12BXKR71DSD3_0000/atomfixed/CL12BXKR71DSD3_20200222060000_0000_linea_1.jpg'
p5
sS'pt2'
p6
(I1904
I907
tp7
sS'pt1'
p8
(I26
I479
tp9
sS'error'
p10
I00
sba(iCounter.linecounter
selectLine
p11
(dp12
g4
S'/monitoreo/Aforos/Peticion_3/22022020_EDEN/22022020_CL12BXKR71DSD3_0000/atomfixed/CL12BXKR71DSD3_20200222060000_0000_linea_2.jpg'
p13
sg6
(I1883
I290
tp14
sg8
(I617
I175
tp15
sg10
I00
sba(iCounter.linecounter
selectLine
p16
(dp17
g4
S'/monitoreo/Aforos/Peticion_3/22022020_EDEN/22022020_CL12BXKR71DSD3_0000/atomfixed/CL12BXKR71DSD3_20200222060000_0000_linea_3.jpg'
p18
sg6
(I231
I932
tp19
sg8
(I627
I449
tp20
sg10
I00
sba(iCounter.linecounter
selectLine
p21
(dp22
g4
S'/monitoreo/Aforos/Peticion_3/22022020_EDEN/22022020_CL12BXKR71DSD3_0000/atomfixed/CL12BXKR71DSD3_20200222060000_0000_linea_4.jpg'
p23
sg6
(I1516
I400
tp24
sg8
(I1579
I139
tp25
sg10
I00
sbaa(lp26
a.