(lp0
I1
aI2
a(lp1
(iCounter.linecounter
selectLine
p2
(dp3
S'archivosalidajpg'
p4
S'/monitoreo/Aforos/Peticion_4/03032020/03032020_TV73ABISAXDG36BISSURSD110_0000/TV73ABISAXDG36BISSURSD110_20200303060000_0000_linea_1.jpg'
p5
sS'pt2'
p6
(I628
I566
tp7
sS'pt1'
p8
(I591
I326
tp9
sS'error'
p10
I00
sbaa(lp11
(iCounter.linecounter
selecttwoLines
p12
(dp13
g4
S'/monitoreo/Aforos/Peticion_4/03032020/03032020_TV73ABISAXDG36BISSURSD110_0000/TV73ABISAXDG36BISSURSD110_20200303060000_0000_lineaCondicional_1.jpg'
p14
sg10
I00
sS'pt4'
p15
(I562
I835
tp16
sS'pt3'
p17
(I496
I416
tp18
sg6
(I1329
I305
tp19
sg8
(I498
I422
tp20
sba(iCounter.linecounter
selecttwoLines
p21
(dp22
g4
S'/monitoreo/Aforos/Peticion_4/03032020/03032020_TV73ABISAXDG36BISSURSD110_0000/TV73ABISAXDG36BISSURSD110_20200303060000_0000_lineaCondicional_2.jpg'
p23
sg10
I00
sg15
(I867
I414
tp24
sg17
(I1430
I292
tp25
sg6
(I1623
I579
tp26
sg8
(I1473
I314
tp27
sbaa.