(lp0
I2
aI0
a(lp1
(iCounter.linecounter
selectLine
p2
(dp3
S'archivosalidajpg'
p4
S'/monitoreo/Aforos/Peticion_3/22022020_EDEN/22022020_CL12BXKR71DSD61_0000/atomfixed/CL12BXKR71DSD61_20200222060000_0000_linea_1.jpg'
p5
sS'pt2'
p6
(I1884
I589
tp7
sS'pt1'
p8
(I53
I506
tp9
sS'error'
p10
I00
sba(iCounter.linecounter
selectLine
p11
(dp12
g4
S'/monitoreo/Aforos/Peticion_3/22022020_EDEN/22022020_CL12BXKR71DSD61_0000/atomfixed/CL12BXKR71DSD61_20200222060000_0000_linea_2.jpg'
p13
sg6
(I1850
I191
tp14
sg8
(I24
I243
tp15
sg10
I00
sbaa(lp16
a.