(lp0
I0
aI3
a(lp1
a(lp2
(iCounter.linecounter
selecttwoLines
p3
(dp4
S'archivosalidajpg'
p5
S'/monitoreo/Aforos/Peticion_3/27022020/27022020_KR15XCL69SD01_0000/KR15XCL69SD01_20200227060000_0000_lineaCondicional_1.jpg'
p6
sS'error'
p7
I00
sS'pt4'
p8
(I1909
I904
tp9
sS'pt3'
p10
(I1105
I366
tp11
sS'pt2'
p12
(I816
I1074
tp13
sS'pt1'
p14
(I424
I358
tp15
sba(iCounter.linecounter
selecttwoLines
p16
(dp17
g5
S'/monitoreo/Aforos/Peticion_3/27022020/27022020_KR15XCL69SD01_0000/KR15XCL69SD01_20200227060000_0000_lineaCondicional_2.jpg'
p18
sg7
I00
sg8
(I1407
I389
tp19
sg10
(I511
I437
tp20
sg12
(I886
I1068
tp21
sg14
(I461
I393
tp22
sba(iCounter.linecounter
selecttwoLines
p23
(dp24
g5
S'/monitoreo/Aforos/Peticion_3/27022020/27022020_KR15XCL69SD01_0000/KR15XCL69SD01_20200227060000_0000_lineaCondicional_3.jpg'
p25
sg7
I00
sg8
(I1499
I372
tp26
sg10
(I499
I485
tp27
sg12
(I1913
I628
tp28
sg14
(I452
I982
tp29
sbaa.