(lp0
I0
aI2
a(lp1
a(lp2
(iCounter.linecounter
selecttwoLines
p3
(dp4
S'archivosalidajpg'
p5
S'/monitoreo/Aforos/Peticion_4/05032020/05032020_KR103DXCL83SD111_0000/KR103DXCL83SD111_20200305060000_0000_lineaCondicional_1.jpg'
p6
sS'error'
p7
I00
sS'pt4'
p8
(I599
I644
tp9
sS'pt3'
p10
(I48
I240
tp11
sS'pt2'
p12
(I1107
I394
tp13
sS'pt1'
p14
(I519
I147
tp15
sba(iCounter.linecounter
selecttwoLines
p16
(dp17
g5
S'/monitoreo/Aforos/Peticion_4/05032020/05032020_KR103DXCL83SD111_0000/KR103DXCL83SD111_20200305060000_0000_lineaCondicional_2.jpg'
p18
sg7
I00
sg8
(I-8
I245
tp19
sg10
(I587
I93
tp20
sg12
(I1159
I400
tp21
sg14
(I511
I112
tp22
sbaa.