(lp0
I1
aI3
a(lp1
(iCounter.linecounter
selectLine
p2
(dp3
S'archivosalidajpg'
p4
S'/monitoreo/Aforos/Peticion_3/27022020/27022020_KR50XCL5CSD98_0000/KR50XCL5CSD98_20200227060000_0000_linea_1.jpg'
p5
sS'pt2'
p6
(I606
I112
tp7
sS'pt1'
p8
(I129
I142
tp9
sS'error'
p10
I00
sbaa(lp11
(iCounter.linecounter
selecttwoLines
p12
(dp13
g4
S'/monitoreo/Aforos/Peticion_3/27022020/27022020_KR50XCL5CSD98_0000/KR50XCL5CSD98_20200227060000_0000_lineaCondicional_1.jpg'
p14
sg10
I00
sS'pt4'
p15
(I40
I323
tp16
sS'pt3'
p17
(I99
I105
tp18
sg6
(I573
I113
tp19
sg8
(I120
I145
tp20
sba(iCounter.linecounter
selecttwoLines
p21
(dp22
g4
S'/monitoreo/Aforos/Peticion_3/27022020/27022020_KR50XCL5CSD98_0000/KR50XCL5CSD98_20200227060000_0000_lineaCondicional_2.jpg'
p23
sg10
I00
sg15
(I813
I260
tp24
sg17
(I188
I324
tp25
sg6
(I594
I106
tp26
sg8
(I60
I136
tp27
sba(iCounter.linecounter
selecttwoLines
p28
(dp29
g4
S'/monitoreo/Aforos/Peticion_3/27022020/27022020_KR50XCL5CSD98_0000/KR50XCL5CSD98_20200227060000_0000_lineaCondicional_3.jpg'
p30
sg10
I00
sg15
(I841
I211
tp31
sg17
(I531
I86
tp32
sg6
(I549
I111
tp33
sg8
(I100
I139
tp34
sbaa.