(lp0
I3
aI3
a(lp1
(iCounter.linecounter
selectLine
p2
(dp3
S'archivosalidajpg'
p4
S'/media/francisco/monitoreo/27022020/27022020/27022020_KR50XCL5CSD98_0000/Faltan/KR50XCL5CSD98_20200227152500_0000_linea_1.jpg'
p5
sS'pt2'
p6
(I1763
I420
tp7
sS'pt1'
p8
(I1604
I523
tp9
sS'error'
p10
I00
sba(iCounter.linecounter
selectLine
p11
(dp12
g4
S'/media/francisco/monitoreo/27022020/27022020/27022020_KR50XCL5CSD98_0000/Faltan/KR50XCL5CSD98_20200227152500_0000_linea_2.jpg'
p13
sg6
(I1360
I323
tp14
sg8
(I1107
I354
tp15
sg10
I00
sba(iCounter.linecounter
selectLine
p16
(dp17
g4
S'/media/francisco/monitoreo/27022020/27022020/27022020_KR50XCL5CSD98_0000/Faltan/KR50XCL5CSD98_20200227152500_0000_linea_3.jpg'
p18
sg6
(I335
I444
tp19
sg8
(I2
I483
tp20
sg10
I00
sbaa(lp21
(iCounter.linecounter
selecttwoLines
p22
(dp23
g4
S'/media/francisco/monitoreo/27022020/27022020/27022020_KR50XCL5CSD98_0000/Faltan/KR50XCL5CSD98_20200227152500_0000_lineaCondicional_1.jpg'
p24
sg10
I00
sS'pt4'
p25
(I115
I486
tp26
sS'pt3'
p27
(I332
I252
tp28
sg6
(I622
I288
tp29
sg8
(I315
I301
tp30
sba(iCounter.linecounter
selecttwoLines
p31
(dp32
g4
S'/media/francisco/monitoreo/27022020/27022020/27022020_KR50XCL5CSD98_0000/Faltan/KR50XCL5CSD98_20200227152500_0000_lineaCondicional_2.jpg'
p33
sg10
I00
sg25
(I1358
I920
tp34
sg27
(I1524
I610
tp35
sg6
(I630
I280
tp36
sg8
(I350
I286
tp37
sba(iCounter.linecounter
selecttwoLines
p38
(dp39
g4
S'/media/francisco/monitoreo/27022020/27022020/27022020_KR50XCL5CSD98_0000/Faltan/KR50XCL5CSD98_20200227152500_0000_lineaCondicional_3.jpg'
p40
sg10
I00
sg25
(I1860
I594
tp41
sg27
(I1255
I368
tp42
sg6
(I628
I280
tp43
sg8
(I326
I291
tp44
sbaa.