(lp0
I2
aI3
a(lp1
(iCounter.linecounter
selectLine
p2
(dp3
S'archivosalidajpg'
p4
S'/monitoreo/Aforos/Peticion_3/26022020/26022020_KR1XCL93SSD34_0000/KR1XCL93SSD34_20200226060000_0000_linea_1.jpg'
p5
sS'pt2'
p6
(I447
I378
tp7
sS'pt1'
p8
(I562
I249
tp9
sS'error'
p10
I00
sba(iCounter.linecounter
selectLine
p11
(dp12
g4
S'/monitoreo/Aforos/Peticion_3/26022020/26022020_KR1XCL93SSD34_0000/KR1XCL93SSD34_20200226060000_0000_linea_2.jpg'
p13
sg6
(I201
I200
tp14
sg8
(I56
I153
tp15
sg10
I00
sbaa(lp16
(iCounter.linecounter
selecttwoLines
p17
(dp18
g4
S'/monitoreo/Aforos/Peticion_3/26022020/26022020_KR1XCL93SSD34_0000/KR1XCL93SSD34_20200226060000_0000_lineaCondicional_1.jpg'
p19
sg10
I00
sS'pt4'
p20
(I285
I182
tp21
sS'pt3'
p22
(I349
I120
tp23
sg6
(I590
I337
tp24
sg8
(I287
I255
tp25
sba(iCounter.linecounter
selecttwoLines
p26
(dp27
g4
S'/monitoreo/Aforos/Peticion_3/26022020/26022020_KR1XCL93SSD34_0000/KR1XCL93SSD34_20200226060000_0000_lineaCondicional_2.jpg'
p28
sg10
I00
sg20
(I459
I129
tp29
sg22
(I715
I184
tp30
sg6
(I557
I352
tp31
sg8
(I270
I247
tp32
sba(iCounter.linecounter
selecttwoLines
p33
(dp34
g4
S'/monitoreo/Aforos/Peticion_3/26022020/26022020_KR1XCL93SSD34_0000/KR1XCL93SSD34_20200226060000_0000_lineaCondicional_3.jpg'
p35
sg10
I00
sg20
(I521
I343
tp36
sg22
(I727
I156
tp37
sg6
(I588
I335
tp38
sg8
(I287
I241
tp39
sbaa.