(lp0
I4
aI0
a(lp1
(iCounter.linecounter
selectLine
p2
(dp3
S'archivosalidajpg'
p4
S'/monitoreo/Aforos/Peticion_3/26022020/26022020_KR1XCL91SSD35_0000/P0/KR1XCL91SSD35_20200226060000_0000_linea_1.jpg'
p5
sS'pt2'
p6
(I1900
I672
tp7
sS'pt1'
p8
(I904
I611
tp9
sS'error'
p10
I00
sba(iCounter.linecounter
selectLine
p11
(dp12
g4
S'/monitoreo/Aforos/Peticion_3/26022020/26022020_KR1XCL91SSD35_0000/P0/KR1XCL91SSD35_20200226060000_0000_linea_2.jpg'
p13
sg6
(I1201
I417
tp14
sg8
(I87
I364
tp15
sg10
I00
sba(iCounter.linecounter
selectLine
p16
(dp17
g4
S'/monitoreo/Aforos/Peticion_3/26022020/26022020_KR1XCL91SSD35_0000/P0/KR1XCL91SSD35_20200226060000_0000_linea_3.jpg'
p18
sg6
(I736
I219
tp19
sg8
(I414
I2
tp20
sg10
I00
sba(iCounter.linecounter
selectLine
p21
(dp22
g4
S'/monitoreo/Aforos/Peticion_3/26022020/26022020_KR1XCL91SSD35_0000/P0/KR1XCL91SSD35_20200226060000_0000_linea_4.jpg'
p23
sg6
(I1728
I568
tp24
sg8
(I1158
I154
tp25
sg10
I00
sbaa(lp26
a.