(lp0
I2
aI0
a(lp1
(iCounter.linecounter
selectLine
p2
(dp3
S'archivosalidajpg'
p4
S'/monitoreo/Aforos/Peticion_3/22022020_EDEN/22022020_KR72XCL12SD65_2140/p1/KR72XCL12SD65_20200220060000_2140_linea_1.jpg'
p5
sS'pt2'
p6
(I278
I235
tp7
sS'pt1'
p8
(I37
I61
tp9
sS'error'
p10
I00
sba(iCounter.linecounter
selectLine
p11
(dp12
g4
S'/monitoreo/Aforos/Peticion_3/22022020_EDEN/22022020_KR72XCL12SD65_2140/p1/KR72XCL12SD65_20200220060000_2140_linea_2.jpg'
p13
sg6
(I1213
I526
tp14
sg8
(I278
I235
tp15
sg10
I00
sbaa(lp16
a.