(lp0
I0
aI2
a(lp1
a(lp2
(iCounter.linecounter
selecttwoLines
p3
(dp4
S'archivosalidajpg'
p5
S'/monitoreo/Aforos/Peticion_3/22022020_EDEN/22022020_CL12CXKR71DSD15_0000/atomfixed/CL12CXKR71DSD15_20200222060000_0000_lineaCondicional_1.jpg'
p6
sS'error'
p7
I00
sS'pt4'
p8
(I1683
I449
tp9
sS'pt3'
p10
(I872
I231
tp11
sS'pt2'
p12
(I1901
I931
tp13
sS'pt1'
p14
(I281
I619
tp15
sba(iCounter.linecounter
selecttwoLines
p16
(dp17
g5
S'/monitoreo/Aforos/Peticion_3/22022020_EDEN/22022020_CL12CXKR71DSD15_0000/atomfixed/CL12CXKR71DSD15_20200222060000_0000_lineaCondicional_2.jpg'
p18
sg7
I00
sg8
(I1600
I514
tp19
sg10
(I1563
I1070
tp20
sg12
(I738
I696
tp21
sg14
(I1498
I1074
tp22
sbaa.