(lp0
I1
aI2
a(lp1
(iCounter.linecounter
selectLine
p2
(dp3
S'archivosalidajpg'
p4
S'/monitoreo/Aforos/Peticion_3/25022020/25022020_ACCESOEDENSD81_0000/ACCESOEDENSD81_20200225060000_0000_linea_1.jpg'
p5
sS'pt2'
p6
(I1485
I861
tp7
sS'pt1'
p8
(I987
I211
tp9
sS'error'
p10
I00
sbaa(lp11
(iCounter.linecounter
selecttwoLines
p12
(dp13
g4
S'/monitoreo/Aforos/Peticion_3/25022020/25022020_ACCESOEDENSD81_0000/ACCESOEDENSD81_20200225060000_0000_lineaCondicional_1.jpg'
p14
sg10
I00
sS'pt4'
p15
(I962
I961
tp16
sS'pt3'
p17
(I151
I391
tp18
sg6
(I908
I944
tp19
sg8
(I838
I183
tp20
sba(iCounter.linecounter
selecttwoLines
p21
(dp22
g4
S'/monitoreo/Aforos/Peticion_3/25022020/25022020_ACCESOEDENSD81_0000/ACCESOEDENSD81_20200225060000_0000_lineaCondicional_2.jpg'
p23
sg10
I00
sg15
(I499
I285
tp24
sg17
(I854
I215
tp25
sg6
(I854
I215
tp26
sg8
(I928
I975
tp27
sbaa.