(lp0
I1
aI0
a(lp1
(iCounter.linecounter
selectLine
p2
(dp3
S'archivosalidajpg'
p4
S'/monitoreo/Aforos/bicicletas_COVID/20200415/1 de mayo x cl 43 sur/CAM93_20200415060000_1_linea_1.jpg'
p5
sS'pt2'
p6
(I1262
I519
tp7
sS'pt1'
p8
(I39
I250
tp9
sS'error'
p10
I00
sbaa(lp11
a.