(lp0
I2
aI0
a(lp1
(iCounter.linecounter
selectLine
p2
(dp3
S'archivosalidajpg'
p4
S'/monitoreo/Aforos/Peticion_3/27022020/27022020_AK72XCL72SD63_0000/AK72XCL72SD63_20200227060000_0000_linea_1.jpg'
p5
sS'pt2'
p6
(I1398
I566
tp7
sS'pt1'
p8
(I815
I661
tp9
sS'error'
p10
I00
sba(iCounter.linecounter
selectLine
p11
(dp12
g4
S'/monitoreo/Aforos/Peticion_3/27022020/27022020_AK72XCL72SD63_0000/AK72XCL72SD63_20200227060000_0000_linea_2.jpg'
p13
sg6
(I1706
I492
tp14
sg8
(I1398
I566
tp15
sg10
I00
sbaa(lp16
a.