(lp0
I0
aI2
a(lp1
a(lp2
(iCounter.linecounter
selecttwoLines
p3
(dp4
S'archivosalidajpg'
p5
S'/monitoreo/Aforos/Peticion_4/04032020/04032020_KR5ZXCL50ASURSD113_0000/KR5ZXCL50ASURSD113_20200304060000_0000_lineaCondicional_1.jpg'
p6
sS'error'
p7
I00
sS'pt4'
p8
(I21
I166
tp9
sS'pt3'
p10
(I619
I65
tp11
sS'pt2'
p12
(I1070
I418
tp13
sS'pt1'
p14
(I599
I63
tp15
sba(iCounter.linecounter
selecttwoLines
p16
(dp17
g5
S'/monitoreo/Aforos/Peticion_4/04032020/04032020_KR5ZXCL50ASURSD113_0000/KR5ZXCL50ASURSD113_20200304060000_0000_lineaCondicional_2.jpg'
p18
sg7
I00
sg8
(I289
I623
tp19
sg10
(I125
I124
tp20
sg12
(I1039
I401
tp21
sg14
(I615
I76
tp22
sbaa.