(lp0
I2
aI0
a(lp1
(iCounter.linecounter
selectLine
p2
(dp3
S'archivosalidajpg'
p4
S'/monitoreo/Aforos/Peticion_4/03032020/03032020_TV73ABISAXDG36BISSURSD122_0000/TV73ABISAXDG36BISSURSD122_20200303060000_0000_linea_1.jpg'
p5
sS'pt2'
p6
(I1758
I1056
tp7
sS'pt1'
p8
(I618
I198
tp9
sS'error'
p10
I00
sba(iCounter.linecounter
selectLine
p11
(dp12
g4
S'/monitoreo/Aforos/Peticion_4/03032020/03032020_TV73ABISAXDG36BISSURSD122_0000/TV73ABISAXDG36BISSURSD122_20200303060000_0000_linea_2.jpg'
p13
sg6
(I1638
I420
tp14
sg8
(I858
I728
tp15
sg10
I00
sbaa(lp16
a.