(lp0
I1
aI1
a(lp1
(iCounter.linecounter
selectLine
p2
(dp3
S'archivosalidajpg'
p4
S'/monitoreo/Aforos/Peticion_3/22022020_EDEN/22022020_ACCESOSEWENEDENSD46_0000/atomfixed/ACCESOSEWENEDENSD46_20200222060000_0000_linea_1.jpg'
p5
sS'pt2'
p6
(I175
I1058
tp7
sS'pt1'
p8
(I570
I389
tp9
sS'error'
p10
I00
sbaa(lp11
(iCounter.linecounter
selecttwoLines
p12
(dp13
g4
S'/monitoreo/Aforos/Peticion_3/22022020_EDEN/22022020_ACCESOSEWENEDENSD46_0000/atomfixed/ACCESOSEWENEDENSD46_20200222060000_0000_lineaCondicional_1.jpg'
p14
sg10
I00
sS'pt4'
p15
(I382
I603
tp16
sS'pt3'
p17
(I61
I505
tp18
sg6
(I478
I438
tp19
sg8
(I654
I250
tp20
sbaa.