(lp0
I1
aI0
a(lp1
(iCounter.linecounter
selectLine
p2
(dp3
S'archivosalidajpg'
p4
S'/monitoreo/Aforos/Peticion_3/25022020/25022020_CL13XKR71DSD93_0000/CL13XKR71DSD93_20200225060000_0000_linea_1.jpg'
p5
sS'pt2'
p6
(I1197
I322
tp7
sS'pt1'
p8
(I204
I684
tp9
sS'error'
p10
I00
sbaa(lp11
a.