(lp0
I2
aI3
a(lp1
(iCounter.linecounter
selectLine
p2
(dp3
S'archivosalidajpg'
p4
S'/monitoreo/Aforos/Peticion_3/27022020/27022020_KR50XCL5CSD82_0000/KR50XCL5CSD82_20200227060000_0000_linea_1.jpg'
p5
sS'pt2'
p6
(I469
I464
tp7
sS'pt1'
p8
(I505
I261
tp9
sS'error'
p10
I00
sba(iCounter.linecounter
selectLine
p11
(dp12
g4
S'/monitoreo/Aforos/Peticion_3/27022020/27022020_KR50XCL5CSD82_0000/KR50XCL5CSD82_20200227060000_0000_linea_2.jpg'
p13
sg6
(I839
I244
tp14
sg8
(I579
I235
tp15
sg10
I00
sbaa(lp16
(iCounter.linecounter
selecttwoLines
p17
(dp18
g4
S'/monitoreo/Aforos/Peticion_3/27022020/27022020_KR50XCL5CSD82_0000/KR50XCL5CSD82_20200227060000_0000_lineaCondicional_1.jpg'
p19
sg10
I00
sS'pt4'
p20
(I445
I82
tp21
sS'pt3'
p22
(I274
I171
tp23
sg6
(I586
I357
tp24
sg8
(I169
I268
tp25
sba(iCounter.linecounter
selecttwoLines
p26
(dp27
g4
S'/monitoreo/Aforos/Peticion_3/27022020/27022020_KR50XCL5CSD82_0000/KR50XCL5CSD82_20200227060000_0000_lineaCondicional_2.jpg'
p28
sg10
I00
sg20
(I691
I138
tp29
sg22
(I435
I90
tp30
sg6
(I626
I332
tp31
sg8
(I181
I265
tp32
sba(iCounter.linecounter
selecttwoLines
p33
(dp34
g4
S'/monitoreo/Aforos/Peticion_3/27022020/27022020_KR50XCL5CSD82_0000/KR50XCL5CSD82_20200227060000_0000_lineaCondicional_3.jpg'
p35
sg10
I00
sg20
(I686
I167
tp36
sg22
(I611
I334
tp37
sg6
(I593
I330
tp38
sg8
(I162
I285
tp39
sbaa.