(lp0
I3
aI0
a(lp1
(iCounter.linecounter
selectLine
p2
(dp3
S'archivosalidajpg'
p4
S'/monitoreo/Aforos/Peticion_3/27022020/27022020_KR50XCL5CSD82_0000/KR50XCL5CSD82_20200227060000_0000_linea_1.jpg'
p5
sS'pt2'
p6
(I631
I757
tp7
sS'pt1'
p8
(I692
I295
tp9
sS'error'
p10
I00
sba(iCounter.linecounter
selectLine
p11
(dp12
g4
S'/monitoreo/Aforos/Peticion_3/27022020/27022020_KR50XCL5CSD82_0000/KR50XCL5CSD82_20200227060000_0000_linea_2.jpg'
p13
sg6
(I1306
I358
tp14
sg8
(I797
I299
tp15
sg10
I00
sba(iCounter.linecounter
selectLine
p16
(dp17
g4
S'/monitoreo/Aforos/Peticion_3/27022020/27022020_KR50XCL5CSD82_0000/KR50XCL5CSD82_20200227060000_0000_linea_3.jpg'
p18
sg6
(I944
I553
tp19
sg8
(I100
I474
tp20
sg10
I00
sbaa(lp21
a.