(lp0
I2
aI0
a(lp1
(iCounter.linecounter
selectLine
p2
(dp3
S'archivosalidajpg'
p4
S'/monitoreo/Aforos/Peticion_3/22022020_EDEN/22022020_CL12BXKR71DSD22_0000/atomfixed/CL12BXKR71DSD22_20200222060000_0000_linea_1.jpg'
p5
sS'pt2'
p6
(I1256
I318
tp7
sS'pt1'
p8
(I1004
I434
tp9
sS'error'
p10
I00
sba(iCounter.linecounter
selectLine
p11
(dp12
g4
S'/monitoreo/Aforos/Peticion_3/22022020_EDEN/22022020_CL12BXKR71DSD22_0000/atomfixed/CL12BXKR71DSD22_20200222060000_0000_linea_2.jpg'
p13
sg6
(I1438
I373
tp14
sg8
(I1264
I463
tp15
sg10
I00
sbaa(lp16
a.