(lp0
I0
aI2
a(lp1
a(lp2
(iCounter.linecounter
selecttwoLines
p3
(dp4
S'archivosalidajpg'
p5
S'/monitoreo/Aforos/Peticion_4/05032020/05032020_KR7AXCL183SD114_0000/KR7XCL183SD114_20200305060000_0000_lineaCondicional_1.jpg'
p6
sS'error'
p7
I00
sS'pt4'
p8
(I671
I396
tp9
sS'pt3'
p10
(I694
I122
tp11
sS'pt2'
p12
(I819
I365
tp13
sS'pt1'
p14
(I136
I178
tp15
sba(iCounter.linecounter
selecttwoLines
p16
(dp17
g5
S'/monitoreo/Aforos/Peticion_4/05032020/05032020_KR7AXCL183SD114_0000/KR7XCL183SD114_20200305060000_0000_lineaCondicional_2.jpg'
p18
sg7
I00
sg8
(I159
I183
tp19
sg10
(I731
I164
tp20
sg12
(I731
I164
tp21
sg14
(I85
I144
tp22
sbaa.