(lp0
I1
aI0
a(lp1
(iCounter.linecounter
selectLine
p2
(dp3
S'archivosalidajpg'
p4
S'/monitoreo/Aforos/Peticion_3/25022020/25022020_AVBOYACAXCL12SD97_0000/AVBOYACAXCL12SD97_20200225060000_0000_linea_1.jpg'
p5
sS'pt2'
p6
(I1415
I357
tp7
sS'pt1'
p8
(I587
I676
tp9
sS'error'
p10
I00
sbaa(lp11
a.