(lp0
I1
aI0
a(lp1
(iCounter.linecounter
selectLine
p2
(dp3
S'archivosalidajpg'
p4
S'/monitoreo/Aforos/bicicletas_COVID/cali x cl 72/CAM24_20200415110000_1_linea_1.jpg'
p5
sS'pt2'
p6
(I1142
I227
tp7
sS'pt1'
p8
(I24
I468
tp9
sS'error'
p10
I00
sbaa(lp11
a.